文件：Main.c       编译器版本 HGASM 0202 页次1


   1  0000              ; Generated by holtek-gcc v3.19, Wed Apr 10 15:18:42 2019
   2  0000              ; 
   3  0000              ; Configuration:
   4  0000              ;       with long instruction
   5  0000              ;       Single ROM, Multi-RAM
   6  0000              ;       bits_per_rom_unit:16
   7  0000              ;       with mp1
   8  0000              ;       with tbhp, address(0x9)
   9  0000              ;          Use tabrd-const
  10  0000              ;       
  11  0000              ; SFR address of long-instruction arch:
  12  0000              ;    mp0 = -1,1,0
  13  0000              ;    mp1 = 4,3,2
  14  0000              ;    mp2 = 14,13,12
  15  0000              ;    tbp = 9,7,8
  16  0000              ;    acc = 5
  17  0000              ;    pcl = 6
  18  0000              ;    status = 10
  19  0000              ;    bp = 11
  20  0000              ;    intc = 32
  21  0000              ;       
  22  0000              ;       
  23  0000              ; use 'tabrdc' instead of 'tabrd'
  24  0000              ;       
  25  0000              
  26  0000              #pragma translator "holtek-gcc 4.6.4" "3.19" "build 20130711"
  27  0000              ; Rebuild 115
  28  0000              
  29  0000              ir equ [2]
  30  0000              mp equ [3]
  31  0000              sbp equ [4]
  32  0000              acc equ [5]
  33  0000              bp equ [11]
  34  0000              tblp equ [7]
  35  0000              tbhp equ [9]
  36  0000              status equ [10]
  37  0000              c equ [10].0
  38  0000              ac equ [10].1
  39  0000              z equ [10].2
  40  0000              ov equ [10].3
  41  0000              cz equ [10].6
  42  0000              sc equ [10].7
  43  0000              intc equ [32]
  44  0000              
  45  0000              extern ra:byte
  46  0000              extern rb:byte
  47  0000              extern rc:byte
  48  0000              extern rd:byte
  49  0000              extern re:byte
  50  0000              extern rf:byte
  51  0000              extern rg:byte
  52  0000              extern rh:byte
  53  0000              extern _Crom2Prom:near
  54  0000              extern _Crom2PromNext:near
  55  0000              
  56  0000              RAMBANK 0 @BITDATASEC, @BITDATASEC1
  57  0000              @HCCINIT	.section 'data'
  58  0000              @HCCINIT0	.section 'data'
  59  0000              @BITDATASEC	 .section 'data'
文件：Main.ASM     编译器版本 HGASM 0202 页次2

  60  0000              @BITDATASEC1	 .section 'data'
  61  0000              
  62  0000              #pragma debug scope 1 1
  63  0000              	extern __DELAY3:near
  64  0000              	extern __DELAYX3:near
  65  0000              	extern __DELAYX6:near
  66  0000              	extern __DELAYY5:near
  67  0000              	extern __DELAYY3:near
  68  0000              	extern _builtin_holtek_delay_2:byte
  69  0000              ___status equ [10]
  70  0000              ___mfi0 equ [27]
  71  0000              public _main
  72  0000              #pragma debug scope 2 1

  18  0000              #line 18 "E:\旧电脑资料\收集的资料\手册\合泰\BH66F5242热电偶资料\SoftWare-BH66F5242_Thermocouple V0.2-lib-20180903\SoftWare-BH66F5242_Thermocouple V0.2-lib\User\Main.c"
  18  0000              IFDEF WITH_DEFAULT_STARTUP
  18  0000              extern _main_initial0:near
  18  0000              extern _main_startup:near
  18  0000              ENDIF
  18  0000              
  18  0000              ROMBANK 0 @start
  18  0000              @start .section com_l 'code'
  18  0000              _main_startup1:
  18  0000              @start .section com_e 'code'
  18  0000  2800     R  	jmp _main
  18  0001              
  18  0000              _main .section 'code'
  18  0000              _main proc
  22  0000              #line 22 "E:\旧电脑资料\收集的资料\手册\合泰\BH66F5242热电偶资料\SoftWare-BH66F5242_Thermocouple V0.2-lib-20180903\SoftWare-BH66F5242_Thermocouple V0.2-lib\User\Main.c"
  22  0000  3A8A        	snz [10].5
  22  0001  2800     R  	jmp _L2
  22  0002              #line 22 "E:\旧电脑资料\收集的资料\手册\合泰\BH66F5242热电偶资料\SoftWare-BH66F5242_Thermocouple V0.2-lib-20180903\SoftWare-BH66F5242_Thermocouple V0.2-lib\User\Main.c"
  22  0002  3E0A        	sz [10].4
  22  0003  2800     R  	jmp _L3
  22  0004              _L2:
  25  0004              #line 25 "E:\旧电脑资料\收集的资料\手册\合泰\BH66F5242热电偶资料\SoftWare-BH66F5242_Thermocouple V0.2-lib-20180903\SoftWare-BH66F5242_Thermocouple V0.2-lib\User\Main.c"
  25  0004  2000     E  	call _fun_PowerOnInit
  27  0005              #line 27 "E:\旧电脑资料\收集的资料\手册\合泰\BH66F5242热电偶资料\SoftWare-BH66F5242_Thermocouple V0.2-lib-20180903\SoftWare-BH66F5242_Thermocouple V0.2-lib\User\Main.c"
  27  0005  0F00        	mov a,0
  27  0006  2000     E  	call _Change_Mode
  27  0007  2800     R  	jmp _L4
  27  0008              _L3:
  33  0008              #line 33 "E:\旧电脑资料\收集的资料\手册\合泰\BH66F5242热电偶资料\SoftWare-BH66F5242_Thermocouple V0.2-lib-20180903\SoftWare-BH66F5242_Thermocouple V0.2-lib\User\Main.c"
  33  0008  2000     E  	call _fun_ResetInit
  33  0009              _L4:
  40  0009              #line 40 "E:\旧电脑资料\收集的资料\手册\合泰\BH66F5242热电偶资料\SoftWare-BH66F5242_Thermocouple V0.2-lib-20180903\SoftWare-BH66F5242_Thermocouple V0.2-lib\User\Main.c"
  40  0009              ;# 40 "E:\旧电脑资料\收集的资料\手册\合泰\BH66F5242热电偶资料\SoftWare-BH66F5242_Thermocouple V0.2-lib-20180903\SoftWare-BH66F5242_Thermocouple V0.2-lib\User\Main.c" 1
  40  0009  0001        	clr wdt
  42  000A              #line 42 "E:\旧电脑资料\收集的资料\手册\合泰\BH66F5242热电偶资料\SoftWare-BH66F5242_Thermocouple V0.2-lib-20180903\SoftWare-BH66F5242_Thermocouple V0.2-lib\User\Main.c"
  42  000A  2000     E  	call _fun_500ms_polling
  43  000B              #line 43 "E:\旧电脑资料\收集的资料\手册\合泰\BH66F5242热电偶资料\SoftWare-BH66F5242_Thermocouple V0.2-lib-20180903\SoftWare-BH66F5242_Thermocouple V0.2-lib\User\Main.c"
  43  000B  2000     E  	call _fun_ADC_Polling
  44  000C              #line 44 "E:\旧电脑资料\收集的资料\手册\合泰\BH66F5242热电偶资料\SoftWare-BH66F5242_Thermocouple V0.2-lib-20180903\SoftWare-BH66F5242_Thermocouple V0.2-lib\User\Main.c"
  44  000C  2000     E  	call _Uart_manage
  46  000D              #line 46 "E:\旧电脑资料\收集的资料\手册\合泰\BH66F5242热电偶资料\SoftWare-BH66F5242_Thermocouple V0.2-lib-20180903\SoftWare-BH66F5242_Thermocouple V0.2-lib\User\Main.c"
  46  000D  0F13        	mov a,19
  46  000E  0200     R  	sub a,_gu8v_halt_time[0]
  46  000F  380A        	snz c
  46  0010  2800     R  	jmp _L6
  48  0011              #line 48 "E:\旧电脑资料\收集的资料\手册\合泰\BH66F5242热电偶资料\SoftWare-BH66F5242_Thermocouple V0.2-lib-20180903\SoftWare-BH66F5242_Thermocouple V0.2-lib\User\Main.c"
文件：Main.c       编译器版本 HGASM 0202 页次3

  48  0011  3A9B        	snz [27].5
  48  0012  2800     R  	jmp _L7
  51  0013              #line 51 "E:\旧电脑资料\收集的资料\手册\合泰\BH66F5242热电偶资料\SoftWare-BH66F5242_Thermocouple V0.2-lib-20180903\SoftWare-BH66F5242_Thermocouple V0.2-lib\User\Main.c"
  51  0013  369B        	clr [27].5
  53  0014              #line 53 "E:\旧电脑资料\收集的资料\手册\合泰\BH66F5242热电偶资料\SoftWare-BH66F5242_Thermocouple V0.2-lib-20180903\SoftWare-BH66F5242_Thermocouple V0.2-lib\User\Main.c"
  53  0014  2000     E  	call _sys_time
  55  0015              #line 55 "E:\旧电脑资料\收集的资料\手册\合泰\BH66F5242热电偶资料\SoftWare-BH66F5242_Thermocouple V0.2-lib-20180903\SoftWare-BH66F5242_Thermocouple V0.2-lib\User\Main.c"
  55  0015  2000     E  	call _fun_Key_Scan
  57  0016              #line 57 "E:\旧电脑资料\收集的资料\手册\合泰\BH66F5242热电偶资料\SoftWare-BH66F5242_Thermocouple V0.2-lib-20180903\SoftWare-BH66F5242_Thermocouple V0.2-lib\User\Main.c"
  57  0016  0700     E  	mov a,_gu8v_work_mode[0]
  57  0017  0A00        	sub a,0
  57  0018  3D0A        	sz z
  57  0019  2800     R  	jmp _L9
  57  001A  0A01        	sub a,(1)-(0)
  57  001B  3D0A        	sz z
  57  001C  2800     R  	jmp _L10
  57  001D  0700     E  	mov a,_gu8v_work_mode[0]
  57  001E  0A02        	sub a,2
  57  001F  3D0A        	sz z
  57  0020  2800     R  	jmp _L7
  57  0021  0A01        	sub a,(3)-(2)
  57  0022  3D0A        	sz z
  57  0023  2800     R  	jmp _L11
  57  0024  0700     E  	mov a,_gu8v_work_mode[0]
  57  0025  0A04        	sub a,4
  57  0026  3D0A        	sz z
  57  0027  2800     R  	jmp _L7
  57  0028  0A01        	sub a,(5)-(4)
  57  0029  3D0A        	sz z
  57  002A  2800     R  	jmp _L7
  57  002B  0700     E  	mov a,_gu8v_work_mode[0]
  57  002C  0A06        	sub a,6
  57  002D  3D0A        	sz z
  57  002E  2800     R  	jmp _L7
  57  002F  0A01        	sub a,(7)-(6)
  57  0030  3D0A        	sz z
  57  0031  2800     R  	jmp _L12
  57  0032  0700     E  	mov a,_gu8v_work_mode[0]
  57  0033  0A08        	sub a,8
  57  0034  3D0A        	sz z
  57  0035  2800     R  	jmp _L7
  57  0036  0700     E  	mov a,_gu8v_work_mode[0]
  57  0037  0A09        	sub a,9
  57  0038  390A        	snz z
  57  0039  2800     R  	jmp _L21
  94  003A              #line 94 "E:\旧电脑资料\收集的资料\手册\合泰\BH66F5242热电偶资料\SoftWare-BH66F5242_Thermocouple V0.2-lib-20180903\SoftWare-BH66F5242_Thermocouple V0.2-lib\User\Main.c"
  94  003A  2000     E  	call _Sys_HALT
  95  003B              #line 95 "E:\旧电脑资料\收集的资料\手册\合泰\BH66F5242热电偶资料\SoftWare-BH66F5242_Thermocouple V0.2-lib-20180903\SoftWare-BH66F5242_Thermocouple V0.2-lib\User\Main.c"
  95  003B  2800     R  	jmp _L7
  95  003C              _L9:
  60  003C              #line 60 "E:\旧电脑资料\收集的资料\手册\合泰\BH66F5242热电偶资料\SoftWare-BH66F5242_Thermocouple V0.2-lib-20180903\SoftWare-BH66F5242_Thermocouple V0.2-lib\User\Main.c"
  60  003C  2000     E  	call _Sys_Normal
  61  003D              #line 61 "E:\旧电脑资料\收集的资料\手册\合泰\BH66F5242热电偶资料\SoftWare-BH66F5242_Thermocouple V0.2-lib-20180903\SoftWare-BH66F5242_Thermocouple V0.2-lib\User\Main.c"
  61  003D  2800     R  	jmp _L7
  61  003E              _L10:
  63  003E              #line 63 "E:\旧电脑资料\收集的资料\手册\合泰\BH66F5242热电偶资料\SoftWare-BH66F5242_Thermocouple V0.2-lib-20180903\SoftWare-BH66F5242_Thermocouple V0.2-lib\User\Main.c"
  63  003E  2000     E  	call _Sys_Power_On
  64  003F              #line 64 "E:\旧电脑资料\收集的资料\手册\合泰\BH66F5242热电偶资料\SoftWare-BH66F5242_Thermocouple V0.2-lib-20180903\SoftWare-BH66F5242_Thermocouple V0.2-lib\User\Main.c"
  64  003F  2800     R  	jmp _L7
  64  0040              _L11:
文件：Main.c       编译器版本 HGASM 0202 页次4

  70  0040              #line 70 "E:\旧电脑资料\收集的资料\手册\合泰\BH66F5242热电偶资料\SoftWare-BH66F5242_Thermocouple V0.2-lib-20180903\SoftWare-BH66F5242_Thermocouple V0.2-lib\User\Main.c"
  70  0040  2000     E  	call _Sys_Measure
  73  0041              #line 73 "E:\旧电脑资料\收集的资料\手册\合泰\BH66F5242热电偶资料\SoftWare-BH66F5242_Thermocouple V0.2-lib-20180903\SoftWare-BH66F5242_Thermocouple V0.2-lib\User\Main.c"
  73  0041  2800     R  	jmp _L7
  73  0042              _L12:
  88  0042              #line 88 "E:\旧电脑资料\收集的资料\手册\合泰\BH66F5242热电偶资料\SoftWare-BH66F5242_Thermocouple V0.2-lib-20180903\SoftWare-BH66F5242_Thermocouple V0.2-lib\User\Main.c"
  88  0042  2000     E  	call _Sys_Calibration_Time
  89  0043              #line 89 "E:\旧电脑资料\收集的资料\手册\合泰\BH66F5242热电偶资料\SoftWare-BH66F5242_Thermocouple V0.2-lib-20180903\SoftWare-BH66F5242_Thermocouple V0.2-lib\User\Main.c"
  89  0043  2800     R  	jmp _L7
  89  0044              _L21:
  97  0044              #line 97 "E:\旧电脑资料\收集的资料\手册\合泰\BH66F5242热电偶资料\SoftWare-BH66F5242_Thermocouple V0.2-lib-20180903\SoftWare-BH66F5242_Thermocouple V0.2-lib\User\Main.c"
  97  0044  0F00        	mov a,0
  97  0045  2000     E  	call _Change_Mode
  97  0046              _L7:
 103  0046              #line 103 "E:\旧电脑资料\收集的资料\手册\合泰\BH66F5242热电偶资料\SoftWare-BH66F5242_Thermocouple V0.2-lib-20180903\SoftWare-BH66F5242_Thermocouple V0.2-lib\User\Main.c"
 103  0046  3400     E  	clr _gu8v_time_flag[0].3
 104  0047              #line 104 "E:\旧电脑资料\收集的资料\手册\合泰\BH66F5242热电偶资料\SoftWare-BH66F5242_Thermocouple V0.2-lib-20180903\SoftWare-BH66F5242_Thermocouple V0.2-lib\User\Main.c"
 104  0047  3400     E  	clr _gu8v_time_flag[0].1
 104  0048  2800     R  	jmp _L4
 104  0049              _L6:
 108  0049              #line 108 "E:\旧电脑资料\收集的资料\手册\合泰\BH66F5242热电偶资料\SoftWare-BH66F5242_Thermocouple V0.2-lib-20180903\SoftWare-BH66F5242_Thermocouple V0.2-lib\User\Main.c"
 108  0049  0F00        	mov a,0
 108  004A  2000     E  	call _Change_Mode
 109  004B              #line 109 "E:\旧电脑资料\收集的资料\手册\合泰\BH66F5242热电偶资料\SoftWare-BH66F5242_Thermocouple V0.2-lib-20180903\SoftWare-BH66F5242_Thermocouple V0.2-lib\User\Main.c"
 109  004B  2000     E  	call _fun_PrepareToHalt
 109  004C  2800     R  	jmp _L4
 109  004D  2800     R  	jmp $
 109  004E              _main endp
 109  004E              
 109  004E              @dummy endp
 109  004E              
 109  004E              #line 109 "E:\旧电脑资料\收集的资料\手册\合泰\BH66F5242热电偶资料\SoftWare-BH66F5242_Thermocouple V0.2-lib-20180903\SoftWare-BH66F5242_Thermocouple V0.2-lib\User\Main.c"
 109  004E              #pragma debug scope 1 1
  15  004E              #line 15 "E:\旧电脑资料\收集的资料\手册\合泰\BH66F5242热电偶资料\SoftWare-BH66F5242_Thermocouple V0.2-lib-20180903\SoftWare-BH66F5242_Thermocouple V0.2-lib\User\Main.c"
  15  004E              public _gu8v_halt_time
  15  0000              @HCCINIT0_gu8v_halt_time .section 'data'
  15  0000              _gu8v_halt_time	db 0
  15  0001              #pragma debug variable 8 1 _gu8v_halt_time "gu8v_halt_time"
  15  0001              
  15  0000              @HCCINIT .section 'data'
  15  0000              #pragma debug struct_end
  15  0000              #pragma debug struct_end
  15  0000              #pragma debug union_end
  15  0000              #pragma debug union_end
  15  0000              #pragma debug variable 43 1 ___status "__status" 1
  15  0000              #pragma debug struct_end
  15  0000              #pragma debug struct_end
  15  0000              #pragma debug union_end
  15  0000              #pragma debug union_end
  15  0000              #pragma debug variable 45 1 ___mfi0 "__mfi0" 1
  15  0000              
  15  0000              ; output external variables
  15  0000              extern _gu8v_time_flag:byte
  15  0000              extern _gu8v_work_mode:byte
  18  0000              #line 18 "E:\旧电脑资料\收集的资料\手册\合泰\BH66F5242热电偶资料\SoftWare-BH66F5242_Thermocouple V0.2-lib-20180903\SoftWare-BH66F5242_Thermocouple V0.2-lib\User\Main.c"
  18  0000              @code .section at 0 'code'
  18  0000  2800     R  	jmp _main_startup1
  18  0001              
  18  0001              extern _fun_PowerOnInit:near
  18  0001              extern _Change_Mode:near
文件：Main.c       编译器版本 HGASM 0202 页次5

  18  0001              extern _fun_ResetInit:near
  18  0001              extern _fun_500ms_polling:near
  18  0001              extern _fun_ADC_Polling:near
  18  0001              extern _Uart_manage:near
  18  0001              extern _sys_time:near
  18  0001              extern _fun_Key_Scan:near
  18  0001              extern _Sys_HALT:near
  18  0001              extern _Sys_Normal:near
  18  0001              extern _Sys_Power_On:near
  18  0001              extern _Sys_Measure:near
  18  0001              extern _Sys_Calibration_Time:near
  18  0001              extern _fun_PrepareToHalt:near
  18  0001              
  18  0001              ; 
  18  0001              ; Generated by holtek-gcc v3.19, Wed Apr 10 15:18:42 2019
  18  0001              ; Rebuild 115
  18  0001              ; end of file


        0 Errors, 0