文件：Uart.c       编译器版本 HGASM 0202 页次1


   1  0000              ; Generated by holtek-gcc v3.19, Wed Apr 10 15:18:43 2019
   2  0000              ; 
   3  0000              ; Configuration:
   4  0000              ;       with long instruction
   5  0000              ;       Single ROM, Multi-RAM
   6  0000              ;       bits_per_rom_unit:16
   7  0000              ;       with mp1
   8  0000              ;       with tbhp, address(0x9)
   9  0000              ;          Use tabrd-const
  10  0000              ;       
  11  0000              ; SFR address of long-instruction arch:
  12  0000              ;    mp0 = -1,1,0
  13  0000              ;    mp1 = 4,3,2
  14  0000              ;    mp2 = 14,13,12
  15  0000              ;    tbp = 9,7,8
  16  0000              ;    acc = 5
  17  0000              ;    pcl = 6
  18  0000              ;    status = 10
  19  0000              ;    bp = 11
  20  0000              ;    intc = 32
  21  0000              ;       
  22  0000              ;       
  23  0000              ; use 'tabrdc' instead of 'tabrd'
  24  0000              ;       
  25  0000              
  26  0000              #pragma translator "holtek-gcc 4.6.4" "3.19" "build 20130711"
  27  0000              ; Rebuild 115
  28  0000              
  29  0000              ir equ [2]
  30  0000              mp equ [3]
  31  0000              sbp equ [4]
  32  0000              acc equ [5]
  33  0000              bp equ [11]
  34  0000              tblp equ [7]
  35  0000              tbhp equ [9]
  36  0000              status equ [10]
  37  0000              c equ [10].0
  38  0000              ac equ [10].1
  39  0000              z equ [10].2
  40  0000              ov equ [10].3
  41  0000              cz equ [10].6
  42  0000              sc equ [10].7
  43  0000              intc equ [32]
  44  0000              
  45  0000              extern ra:byte
  46  0000              extern rb:byte
  47  0000              extern rc:byte
  48  0000              extern rd:byte
  49  0000              extern re:byte
  50  0000              extern rf:byte
  51  0000              extern rg:byte
  52  0000              extern rh:byte
  53  0000              extern _Crom2Prom:near
  54  0000              extern _Crom2PromNext:near
  55  0000              
  56  0000              RAMBANK 0 @BITDATASEC, @BITDATASEC1
  57  0000              @HCCINIT	.section 'data'
  58  0000              @HCCINIT0	.section 'data'
  59  0000              @BITDATASEC	 .section 'data'
文件：Uart.ASM     编译器版本 HGASM 0202 页次2

  60  0000              @BITDATASEC1	 .section 'data'
  61  0000              
  62  0000              #pragma debug scope 1 1
  63  0000              	extern __DELAY3:near
  64  0000              	extern __DELAYX3:near
  65  0000              	extern __DELAYX6:near
  66  0000              	extern __DELAYY5:near
  67  0000              	extern __DELAYY3:near
  68  0000              	extern _builtin_holtek_delay_2:byte
  69  0000              public _delay_uart
  70  0000              #pragma debug scope 2 1

  62  0000              #line 62 "E:\旧电脑资料\收集的资料\手册\合泰\BH66F5242热电偶资料\SoftWare-BH66F5242_Thermocouple V0.2-lib-20180903\SoftWare-BH66F5242_Thermocouple V0.2-lib\User\Uart.c"
  62  0000              _delay_uart .section 'code'
  62  0000              _delay_uart proc
  62  0000              public _delay_uart_2
  62  0000  0002[           local _delay_uart_2 db 2 dup(?)	; 2,0
            00
            ]
  62  0002              #pragma debug variable 12 2 _delay_uart_2+0 "lu8v_Uart_time"
  62  0000              _L3:
  63  0000              #line 63 "E:\旧电脑资料\收集的资料\手册\合泰\BH66F5242热电偶资料\SoftWare-BH66F5242_Thermocouple V0.2-lib-20180903\SoftWare-BH66F5242_Thermocouple V0.2-lib\User\Uart.c"
  63  0000  0700     R  	mov a,_delay_uart_2[0]
  63  0001  0080     E  	mov rb,a
  63  0002  0700     R  	mov a,_delay_uart_2[1]
  63  0003  0080     E  	mov rc,a
  63  0004  0FFF        	mov a,255
  63  0005  0300     E  	add a,rb
  63  0006  0080     R  	mov _delay_uart_2[0],a
  63  0007  0FFF        	mov a,255
  63  0008  1300     E  	adc a,rc
  63  0009  0080     R  	mov _delay_uart_2[1],a
  63  000A  0700     E  	mov a,rb
  63  000B  0500     E  	or a,rc
  63  000C  390A        	snz z
  63  000D  2800     R  	jmp _L3
  63  000E  0003        	ret
  63  000F              _delay_uart endp
  63  000F              #line 63 "E:\旧电脑资料\收集的资料\手册\合泰\BH66F5242热电偶资料\SoftWare-BH66F5242_Thermocouple V0.2-lib-20180903\SoftWare-BH66F5242_Thermocouple V0.2-lib\User\Uart.c"
  63  000F              #pragma debug scope 1 1
  63  000F              public _Uart_IO_SendOneByte
  63  000F              #pragma debug scope 3 1
  72  000F              #line 72 "E:\旧电脑资料\收集的资料\手册\合泰\BH66F5242热电偶资料\SoftWare-BH66F5242_Thermocouple V0.2-lib-20180903\SoftWare-BH66F5242_Thermocouple V0.2-lib\User\Uart.c"
  72  0000              _Uart_IO_SendOneByte .section 'code'
  72  0000              _Uart_IO_SendOneByte proc
  72  0000  00              local _Uart_IO_SendOneByte_2 db 1 dup(?)	; 0,1
  72  0001              #pragma debug variable 8 3 _Uart_IO_SendOneByte_2+0 "lu8v_Uart_byte"
  72  0000  0003        	ret
  72  0001              _Uart_IO_SendOneByte endp
  72  0001              #line 72 "E:\旧电脑资料\收集的资料\手册\合泰\BH66F5242热电偶资料\SoftWare-BH66F5242_Thermocouple V0.2-lib-20180903\SoftWare-BH66F5242_Thermocouple V0.2-lib\User\Uart.c"
  72  0001              #pragma debug scope 1 1
  72  0001              ___simc0 equ [86]
  72  0001              ___pas1 equ [48]
  72  0001              ___uucr1 equ [87]
  72  0001              ___uucr2 equ [88]
  72  0001              ___ubrg equ [90]
  72  0001              ___intc1 equ [33]
  72  0001              ___intc0 equ [32]
  72  0001              public _Uart_Init
  72  0001              #pragma debug scope 4 1
文件：Uart.c       编译器版本 HGASM 0202 页次3

  89  0001              #line 89 "E:\旧电脑资料\收集的资料\手册\合泰\BH66F5242热电偶资料\SoftWare-BH66F5242_Thermocouple V0.2-lib-20180903\SoftWare-BH66F5242_Thermocouple V0.2-lib\User\Uart.c"
  89  0000              _Uart_Init .section 'code'
  89  0000              _Uart_Init proc
  90  0000              #line 90 "E:\旧电脑资料\收集的资料\手册\合泰\BH66F5242热电偶资料\SoftWare-BH66F5242_Thermocouple V0.2-lib-20180903\SoftWare-BH66F5242_Thermocouple V0.2-lib\User\Uart.c"
  90  0000  3256        	set [86].4
  92  0001              #line 92 "E:\旧电脑资料\收集的资料\手册\合泰\BH66F5242热电偶资料\SoftWare-BH66F5242_Thermocouple V0.2-lib-20180903\SoftWare-BH66F5242_Thermocouple V0.2-lib\User\Uart.c"
  92  0001  35B0        	clr [48].3
  93  0002              #line 93 "E:\旧电脑资料\收集的资料\手册\合泰\BH66F5242热电偶资料\SoftWare-BH66F5242_Thermocouple V0.2-lib-20180903\SoftWare-BH66F5242_Thermocouple V0.2-lib\User\Uart.c"
  93  0002  3130        	set [48].2
  94  0003              #line 94 "E:\旧电脑资料\收集的资料\手册\合泰\BH66F5242热电偶资料\SoftWare-BH66F5242_Thermocouple V0.2-lib-20180903\SoftWare-BH66F5242_Thermocouple V0.2-lib\User\Uart.c"
  94  0003  30B0        	set [48].1
  95  0004              #line 95 "E:\旧电脑资料\收集的资料\手册\合泰\BH66F5242热电偶资料\SoftWare-BH66F5242_Thermocouple V0.2-lib-20180903\SoftWare-BH66F5242_Thermocouple V0.2-lib\User\Uart.c"
  95  0004  3430        	clr [48].0
  96  0005              #line 96 "E:\旧电脑资料\收集的资料\手册\合泰\BH66F5242热电偶资料\SoftWare-BH66F5242_Thermocouple V0.2-lib-20180903\SoftWare-BH66F5242_Thermocouple V0.2-lib\User\Uart.c"
  96  0005  0F80        	mov a,128
  96  0006  00D7        	mov [87],a
  97  0007              #line 97 "E:\旧电脑资料\收集的资料\手册\合泰\BH66F5242热电偶资料\SoftWare-BH66F5242_Thermocouple V0.2-lib-20180903\SoftWare-BH66F5242_Thermocouple V0.2-lib\User\Uart.c"
  97  0007  0FEF        	mov a,239
  97  0008  00D8        	mov [88],a
  98  0009              #line 98 "E:\旧电脑资料\收集的资料\手册\合泰\BH66F5242热电偶资料\SoftWare-BH66F5242_Thermocouple V0.2-lib-20180903\SoftWare-BH66F5242_Thermocouple V0.2-lib\User\Uart.c"
  98  0009  3158        	set [88].2
  99  000A              #line 99 "E:\旧电脑资料\收集的资料\手册\合泰\BH66F5242热电偶资料\SoftWare-BH66F5242_Thermocouple V0.2-lib-20180903\SoftWare-BH66F5242_Thermocouple V0.2-lib\User\Uart.c"
  99  000A  3256        	set [86].4
 101  000B              #line 101 "E:\旧电脑资料\收集的资料\手册\合泰\BH66F5242热电偶资料\SoftWare-BH66F5242_Thermocouple V0.2-lib-20180903\SoftWare-BH66F5242_Thermocouple V0.2-lib\User\Uart.c"
 101  000B  0F19        	mov a,25
 101  000C  00DA        	mov [90],a
 103  000D              #line 103 "E:\旧电脑资料\收集的资料\手册\合泰\BH66F5242热电偶资料\SoftWare-BH66F5242_Thermocouple V0.2-lib-20180903\SoftWare-BH66F5242_Thermocouple V0.2-lib\User\Uart.c"
 103  000D  3121        	set [33].2
 104  000E              #line 104 "E:\旧电脑资料\收集的资料\手册\合泰\BH66F5242热电偶资料\SoftWare-BH66F5242_Thermocouple V0.2-lib-20180903\SoftWare-BH66F5242_Thermocouple V0.2-lib\User\Uart.c"
 104  000E  3020        	set [32].0
 104  000F  0003        	ret
 104  0010              _Uart_Init endp
 104  0010              #line 104 "E:\旧电脑资料\收集的资料\手册\合泰\BH66F5242热电偶资料\SoftWare-BH66F5242_Thermocouple V0.2-lib-20180903\SoftWare-BH66F5242_Thermocouple V0.2-lib\User\Uart.c"
 104  0010              #pragma debug scope 1 1
 104  0010              public _Uart_off
 104  0010              #pragma debug scope 5 1
 114  0010              #line 114 "E:\旧电脑资料\收集的资料\手册\合泰\BH66F5242热电偶资料\SoftWare-BH66F5242_Thermocouple V0.2-lib-20180903\SoftWare-BH66F5242_Thermocouple V0.2-lib\User\Uart.c"
 114  0000              _Uart_off .section 'code'
 114  0000              _Uart_off proc
 115  0000              #line 115 "E:\旧电脑资料\收集的资料\手册\合泰\BH66F5242热电偶资料\SoftWare-BH66F5242_Thermocouple V0.2-lib-20180903\SoftWare-BH66F5242_Thermocouple V0.2-lib\User\Uart.c"
 115  0000  37D7        	clr [87].7
 116  0001              #line 116 "E:\旧电脑资料\收集的资料\手册\合泰\BH66F5242热电偶资料\SoftWare-BH66F5242_Thermocouple V0.2-lib-20180903\SoftWare-BH66F5242_Thermocouple V0.2-lib\User\Uart.c"
 116  0001  1F57        	clr [87]
 117  0002              #line 117 "E:\旧电脑资料\收集的资料\手册\合泰\BH66F5242热电偶资料\SoftWare-BH66F5242_Thermocouple V0.2-lib-20180903\SoftWare-BH66F5242_Thermocouple V0.2-lib\User\Uart.c"
 117  0002  1F58        	clr [88]
 118  0003              #line 118 "E:\旧电脑资料\收集的资料\手册\合泰\BH66F5242热电偶资料\SoftWare-BH66F5242_Thermocouple V0.2-lib-20180903\SoftWare-BH66F5242_Thermocouple V0.2-lib\User\Uart.c"
 118  0003  3521        	clr [33].2
 118  0004  0003        	ret
 118  0005              _Uart_off endp
 118  0005              #line 118 "E:\旧电脑资料\收集的资料\手册\合泰\BH66F5242热电偶资料\SoftWare-BH66F5242_Thermocouple V0.2-lib-20180903\SoftWare-BH66F5242_Thermocouple V0.2-lib\User\Uart.c"
 118  0005              #pragma debug scope 1 1
 118  0005              ___uusr equ [91]
 118  0005              ___utxr_rxr equ [89]
 118  0005              public _UART_ISR
 118  0005              #pragma debug scope 6 1
 131  0005              #line 131 "E:\旧电脑资料\收集的资料\手册\合泰\BH66F5242热电偶资料\SoftWare-BH66F5242_Thermocouple V0.2-lib-20180903\SoftWare-BH66F5242_Thermocouple V0.2-lib\User\Uart.c"
 131  0000              @UART_ISR_code .section at 24 'code'
 131  0000              ifdef INTERRUPT_DELAY
 131  0000              	nop
 131  0000              endif
文件：Uart.c       编译器版本 HGASM 0202 页次4

 131  0000  0080     E  	mov r1,a
 131  0001  070A        	mov a,status
 131  0002              ifndef INTERRUPT_DELAY
 131  0002  0080     E  	mov r2,a
 131  0003              endif
 131  0003  2800     R  	jmp _UART_ISR
 131  0004              #pragma debug scope 1 1
 131  0004              @dummy24 endp
 131  0004              #pragma debug scope 7 1
 131  0000              _UART_ISR .section 'code'
 131  0000              _UART_ISR proc
 131  0000              ifdef INTERRUPT_DELAY
 131  0000              	mov r2,a
 131  0000              endif
 131  0000  0703        	mov a,mp
 131  0001  0080     E  	mov r3,a
 131  0002  0704        	mov a,sbp
 131  0003  0080     E  	mov r4,a
 131  0004  0707        	mov a,tblp
 131  0005  0080     E  	mov r5,a
 131  0006  0709        	mov a,tbhp
 131  0007  0080     E  	mov r6,a
 134  0008              #line 134 "E:\旧电脑资料\收集的资料\手册\合泰\BH66F5242热电偶资料\SoftWare-BH66F5242_Thermocouple V0.2-lib-20180903\SoftWare-BH66F5242_Thermocouple V0.2-lib\User\Uart.c"
 134  0008  3FDB        	sz [91].7
 134  0009  2800     R  	jmp _L8
 134  000A              #line 134 "E:\旧电脑资料\收集的资料\手册\合泰\BH66F5242热电偶资料\SoftWare-BH66F5242_Thermocouple V0.2-lib-20180903\SoftWare-BH66F5242_Thermocouple V0.2-lib\User\Uart.c"
 134  000A  3F5B        	sz [91].6
 134  000B  2800     R  	jmp _L8
 134  000C  3EDB        	sz [91].5
 134  000D  2800     R  	jmp _L8
 134  000E  3A5B        	snz [91].4
 134  000F  2800     R  	jmp _L9
 134  0010              _L8:
 136  0010              #line 136 "E:\旧电脑资料\收集的资料\手册\合泰\BH66F5242热电偶资料\SoftWare-BH66F5242_Thermocouple V0.2-lib-20180903\SoftWare-BH66F5242_Thermocouple V0.2-lib\User\Uart.c"
 136  0010  075B        	mov a,[91]
 136  0011  0080     E  	mov ra,a
 137  0012              #line 137 "E:\旧电脑资料\收集的资料\手册\合泰\BH66F5242热电偶资料\SoftWare-BH66F5242_Thermocouple V0.2-lib-20180903\SoftWare-BH66F5242_Thermocouple V0.2-lib\User\Uart.c"
 137  0012  0759        	mov a,[89]
 137  0013  0080     E  	mov ra,a
 137  0014  2800     R  	jmp _L7
 137  0015              _L9:
 141  0015              #line 141 "E:\旧电脑资料\收集的资料\手册\合泰\BH66F5242热电偶资料\SoftWare-BH66F5242_Thermocouple V0.2-lib-20180903\SoftWare-BH66F5242_Thermocouple V0.2-lib\User\Uart.c"
 141  0015  395B        	snz [91].2
 141  0016  2800     R  	jmp _L11
 141  0017  0F06        	mov a,6
 141  0018  0080     E  	mov ra,a
 141  0019  1F00     E  	clr rd
 141  001A              _L13:
 145  001A              #line 145 "E:\旧电脑资料\收集的资料\手册\合泰\BH66F5242热电偶资料\SoftWare-BH66F5242_Thermocouple V0.2-lib-20180903\SoftWare-BH66F5242_Thermocouple V0.2-lib\User\Uart.c"
 145  001A  0700     E  	mov a,rd
 145  001B  0080     E  	mov rb,a
 145  001C  1F00     E  	clr rc
 145  001D  0F00     R  	mov a,low (offset _array_uart_rxbuff+1)
 145  001E  0300     E  	add a,rb
 145  001F  0083        	mov mp,a
 145  0020  0F00     R  	mov a,high (offset _array_uart_rxbuff+1)
 145  0021  1300     E  	adc a,rc
 145  0022  0084        	mov sbp,a
 145  0023  2000     E  	call _Crom2Prom
 145  0024  0080     E  	mov re,a
文件：Uart.c       编译器版本 HGASM 0202 页次5

 145  0025  0F00     R  	mov a,low offset _array_uart_rxbuff
 145  0026  0300     E  	add a,rb
 145  0027  0083        	mov mp,a
 145  0028  0F00     R  	mov a,high offset _array_uart_rxbuff
 145  0029  1300     E  	adc a,rc
 145  002A  0084        	mov sbp,a
 145  002B  0700     E  	mov a,re
 145  002C  0082        	mov ir,a
 143  002D              #line 143 "E:\旧电脑资料\收集的资料\手册\合泰\BH66F5242热电偶资料\SoftWare-BH66F5242_Thermocouple V0.2-lib-20180903\SoftWare-BH66F5242_Thermocouple V0.2-lib\User\Uart.c"
 143  002D  1480     E  	inc rd
 143  002E  1780     E  	sdz ra
 143  002F  2800     R  	jmp _L13
 147  0030              #line 147 "E:\旧电脑资料\收集的资料\手册\合泰\BH66F5242热电偶资料\SoftWare-BH66F5242_Thermocouple V0.2-lib-20180903\SoftWare-BH66F5242_Thermocouple V0.2-lib\User\Uart.c"
 147  0030  0759        	mov a,[89]
 147  0031  0080     R  	mov _array_uart_rxbuff[6],a
 148  0032              #line 148 "E:\旧电脑资料\收集的资料\手册\合泰\BH66F5242热电偶资料\SoftWare-BH66F5242_Thermocouple V0.2-lib-20180903\SoftWare-BH66F5242_Thermocouple V0.2-lib\User\Uart.c"
 148  0032  0700     R  	mov a,_array_uart_rxbuff[0]
 148  0033  0A5A        	sub a,90
 148  0034  390A        	snz z
 148  0035  2800     R  	jmp _L15
 148  0036  0700     R  	mov a,_array_uart_rxbuff[3]
 148  0037  0300     R  	add a,_array_uart_rxbuff[2]
 148  0038  0080     E  	mov ra,a
 148  0039  0700     R  	mov a,_array_uart_rxbuff[4]
 148  003A  0380     E  	addm a,ra
 148  003B  0700     R  	mov a,_array_uart_rxbuff[5]
 148  003C  0380     E  	addm a,ra
 148  003D  0700     R  	mov a,_array_uart_rxbuff[1]
 148  003E  0300     R  	add a,_array_uart_rxbuff[0]
 148  003F  0080     E  	mov rb,a
 148  0040  0700     E  	mov a,rb
 148  0041  0380     E  	addm a,ra
 148  0042  0700     R  	mov a,_array_uart_rxbuff[6]
 148  0043  0200     E  	sub a,ra
 148  0044  390A        	snz z
 148  0045  2800     R  	jmp _L15
 150  0046              #line 150 "E:\旧电脑资料\收集的资料\手册\合泰\BH66F5242热电偶资料\SoftWare-BH66F5242_Thermocouple V0.2-lib-20180903\SoftWare-BH66F5242_Thermocouple V0.2-lib\User\Uart.c"
 150  0046  3000     R  	set _gu8v_uart_flag[0].1
 152  0047              #line 152 "E:\旧电脑资料\收集的资料\手册\合泰\BH66F5242热电偶资料\SoftWare-BH66F5242_Thermocouple V0.2-lib-20180903\SoftWare-BH66F5242_Thermocouple V0.2-lib\User\Uart.c"
 152  0047  0700     R  	mov a,_array_uart_rxbuff[0]
 152  0048  0A02        	sub a,2
 152  0049  390A        	snz z
 152  004A  2800     R  	jmp _L15
 154  004B              #line 154 "E:\旧电脑资料\收集的资料\手册\合泰\BH66F5242热电偶资料\SoftWare-BH66F5242_Thermocouple V0.2-lib-20180903\SoftWare-BH66F5242_Thermocouple V0.2-lib\User\Uart.c"
 154  004B              ;# 154 "E:\旧电脑资料\收集的资料\手册\合泰\BH66F5242热电偶资料\SoftWare-BH66F5242_Thermocouple V0.2-lib-20180903\SoftWare-BH66F5242_Thermocouple V0.2-lib\User\Uart.c" 1
 154  004B  0000        	nop
 154  004C              _L15:
 160  004C              #line 160 "E:\旧电脑资料\收集的资料\手册\合泰\BH66F5242热电偶资料\SoftWare-BH66F5242_Thermocouple V0.2-lib-20180903\SoftWare-BH66F5242_Thermocouple V0.2-lib\User\Uart.c"
 160  004C              ;# 160 "E:\旧电脑资料\收集的资料\手册\合泰\BH66F5242热电偶资料\SoftWare-BH66F5242_Thermocouple V0.2-lib-20180903\SoftWare-BH66F5242_Thermocouple V0.2-lib\User\Uart.c" 1
 160  004C  0000        	nop
 160  004D              _L11:
 162  004D              #line 162 "E:\旧电脑资料\收集的资料\手册\合泰\BH66F5242热电偶资料\SoftWare-BH66F5242_Thermocouple V0.2-lib-20180903\SoftWare-BH66F5242_Thermocouple V0.2-lib\User\Uart.c"
 162  004D  385B        	snz [91].0
 162  004E  2800     R  	jmp _L7
 165  004F              #line 165 "E:\旧电脑资料\收集的资料\手册\合泰\BH66F5242热电偶资料\SoftWare-BH66F5242_Thermocouple V0.2-lib-20180903\SoftWare-BH66F5242_Thermocouple V0.2-lib\User\Uart.c"
 165  004F  1480     R  	inc _gu8v_tx_guide[0]
 167  0050              #line 167 "E:\旧电脑资料\收集的资料\手册\合泰\BH66F5242热电偶资料\SoftWare-BH66F5242_Thermocouple V0.2-lib-20180903\SoftWare-BH66F5242_Thermocouple V0.2-lib\User\Uart.c"
 167  0050  0700     R  	mov a,_gu8v_tx_guide[0]
 167  0051  0200     R  	sub a,_gu8v_tx_lenght[0]
 167  0052  3C0A        	sz c
文件：Uart.c       编译器版本 HGASM 0202 页次6

 167  0053  2800     R  	jmp _L7
 169  0054              #line 169 "E:\旧电脑资料\收集的资料\手册\合泰\BH66F5242热电偶资料\SoftWare-BH66F5242_Thermocouple V0.2-lib-20180903\SoftWare-BH66F5242_Thermocouple V0.2-lib\User\Uart.c"
 169  0054  0F00     R  	mov a,low offset _array_uart_txbuff
 169  0055  0300     R  	add a,_gu8v_tx_guide[0]
 169  0056  0083        	mov mp,a
 169  0057  0F00     R  	mov a,high offset _array_uart_txbuff
 169  0058  1F04        	clr sbp
 169  0059  1384        	adcm a,sbp
 169  005A  2000     E  	call _Crom2Prom
 169  005B  00D9        	mov [89],a
 169  005C              _L7:
 169  005C  0700     E  	mov a,r2
 169  005D  008A        	mov status,a
 169  005E  0700     E  	mov a,r3
 169  005F  0083        	mov mp,a
 169  0060  0700     E  	mov a,r4
 169  0061  0084        	mov sbp,a
 169  0062  0700     E  	mov a,r5
 169  0063  0087        	mov tblp,a
 169  0064  0700     E  	mov a,r6
 169  0065  0089        	mov tbhp,a
 169  0066  1D05        	tabrdc acc
 169  0067  0700     E  	mov a,r1
 169  0068  0004        	reti
 169  0069              _UART_ISR endp
 169  0069              
 169  0069              #line 169 "E:\旧电脑资料\收集的资料\手册\合泰\BH66F5242热电偶资料\SoftWare-BH66F5242_Thermocouple V0.2-lib-20180903\SoftWare-BH66F5242_Thermocouple V0.2-lib\User\Uart.c"
 169  0069              #pragma debug scope 1 1
 169  0069              public _Uart_single_ack
 169  0069              #pragma debug scope 8 1
 191  0069              #line 191 "E:\旧电脑资料\收集的资料\手册\合泰\BH66F5242热电偶资料\SoftWare-BH66F5242_Thermocouple V0.2-lib-20180903\SoftWare-BH66F5242_Thermocouple V0.2-lib\User\Uart.c"
 191  0000              _Uart_single_ack .section 'code'
 191  0000              _Uart_single_ack proc
 192  0000              #line 192 "E:\旧电脑资料\收集的资料\手册\合泰\BH66F5242热电偶资料\SoftWare-BH66F5242_Thermocouple V0.2-lib-20180903\SoftWare-BH66F5242_Thermocouple V0.2-lib\User\Uart.c"
 192  0000  3400     E  	clr _gu8v_sys_flag[0].3
 194  0001              #line 194 "E:\旧电脑资料\收集的资料\手册\合泰\BH66F5242热电偶资料\SoftWare-BH66F5242_Thermocouple V0.2-lib-20180903\SoftWare-BH66F5242_Thermocouple V0.2-lib\User\Uart.c"
 194  0001  0F55        	mov a,85
 194  0002  0080     R  	mov _array_uart_txbuff[0],a
 195  0003              #line 195 "E:\旧电脑资料\收集的资料\手册\合泰\BH66F5242热电偶资料\SoftWare-BH66F5242_Thermocouple V0.2-lib-20180903\SoftWare-BH66F5242_Thermocouple V0.2-lib\User\Uart.c"
 195  0003  0F03        	mov a,3
 195  0004  0080     R  	mov _array_uart_txbuff[1],a
 196  0005              #line 196 "E:\旧电脑资料\收集的资料\手册\合泰\BH66F5242热电偶资料\SoftWare-BH66F5242_Thermocouple V0.2-lib-20180903\SoftWare-BH66F5242_Thermocouple V0.2-lib\User\Uart.c"
 196  0005  0F01        	mov a,1
 196  0006  0080     R  	mov _array_uart_txbuff[2],a
 197  0007              #line 197 "E:\旧电脑资料\收集的资料\手册\合泰\BH66F5242热电偶资料\SoftWare-BH66F5242_Thermocouple V0.2-lib-20180903\SoftWare-BH66F5242_Thermocouple V0.2-lib\User\Uart.c"
 197  0007  1F00     R  	clr _array_uart_txbuff[3]
 198  0008              #line 198 "E:\旧电脑资料\收集的资料\手册\合泰\BH66F5242热电偶资料\SoftWare-BH66F5242_Thermocouple V0.2-lib-20180903\SoftWare-BH66F5242_Thermocouple V0.2-lib\User\Uart.c"
 198  0008  1F00     R  	clr _array_uart_txbuff[4]
 199  0009              #line 199 "E:\旧电脑资料\收集的资料\手册\合泰\BH66F5242热电偶资料\SoftWare-BH66F5242_Thermocouple V0.2-lib-20180903\SoftWare-BH66F5242_Thermocouple V0.2-lib\User\Uart.c"
 199  0009  1F00     E  	clr ra
 199  000A              _L24:
 199  000A              #line 199 "E:\旧电脑资料\收集的资料\手册\合泰\BH66F5242热电偶资料\SoftWare-BH66F5242_Thermocouple V0.2-lib-20180903\SoftWare-BH66F5242_Thermocouple V0.2-lib\User\Uart.c"
 199  000A  0700     R  	mov a,_array_uart_txbuff[1]
 199  000B  0200     E  	sub a,ra
 199  000C  380A        	snz c
 199  000D  2800     R  	jmp _L26
 201  000E              #line 201 "E:\旧电脑资料\收集的资料\手册\合泰\BH66F5242热电偶资料\SoftWare-BH66F5242_Thermocouple V0.2-lib-20180903\SoftWare-BH66F5242_Thermocouple V0.2-lib\User\Uart.c"
 201  000E  0F00     R  	mov a,low offset _array_uart_txbuff
 201  000F  0300     E  	add a,ra
 201  0010  0083        	mov mp,a
文件：Uart.c       编译器版本 HGASM 0202 页次7

 201  0011  0F00     R  	mov a,high offset _array_uart_txbuff
 201  0012  1F04        	clr sbp
 201  0013  1384        	adcm a,sbp
 201  0014  2000     E  	call _Crom2Prom
 201  0015  0080     E  	mov rb,a
 201  0016  0700     E  	mov a,rb
 201  0017  0380     R  	addm a,_array_uart_txbuff[4]
 199  0018              #line 199 "E:\旧电脑资料\收集的资料\手册\合泰\BH66F5242热电偶资料\SoftWare-BH66F5242_Thermocouple V0.2-lib-20180903\SoftWare-BH66F5242_Thermocouple V0.2-lib\User\Uart.c"
 199  0018  1480     E  	inc ra
 199  0019  2800     R  	jmp _L24
 199  001A              _L26:
 204  001A              #line 204 "E:\旧电脑资料\收集的资料\手册\合泰\BH66F5242热电偶资料\SoftWare-BH66F5242_Thermocouple V0.2-lib-20180903\SoftWare-BH66F5242_Thermocouple V0.2-lib\User\Uart.c"
 204  001A  1F00     R  	clr _gu8v_tx_guide[0]
 205  001B              #line 205 "E:\旧电脑资料\收集的资料\手册\合泰\BH66F5242热电偶资料\SoftWare-BH66F5242_Thermocouple V0.2-lib-20180903\SoftWare-BH66F5242_Thermocouple V0.2-lib\User\Uart.c"
 205  001B  0F05        	mov a,5
 205  001C  0080     R  	mov _gu8v_tx_lenght[0],a
 206  001D              #line 206 "E:\旧电脑资料\收集的资料\手册\合泰\BH66F5242热电偶资料\SoftWare-BH66F5242_Thermocouple V0.2-lib-20180903\SoftWare-BH66F5242_Thermocouple V0.2-lib\User\Uart.c"
 206  001D  0700     R  	mov a,_array_uart_txbuff[0]
 206  001E  00D9        	mov [89],a
 206  001F  0003        	ret
 206  0020              _Uart_single_ack endp
 206  0020              #line 206 "E:\旧电脑资料\收集的资料\手册\合泰\BH66F5242热电偶资料\SoftWare-BH66F5242_Thermocouple V0.2-lib-20180903\SoftWare-BH66F5242_Thermocouple V0.2-lib\User\Uart.c"
 206  0020              #pragma debug scope 1 1
 206  0020              public _Uart_check_ack
 206  0020              #pragma debug scope 9 1
 218  0020              #line 218 "E:\旧电脑资料\收集的资料\手册\合泰\BH66F5242热电偶资料\SoftWare-BH66F5242_Thermocouple V0.2-lib-20180903\SoftWare-BH66F5242_Thermocouple V0.2-lib\User\Uart.c"
 218  0000              _Uart_check_ack .section 'code'
 218  0000              _Uart_check_ack proc
 222  0000              #line 222 "E:\旧电脑资料\收集的资料\手册\合泰\BH66F5242热电偶资料\SoftWare-BH66F5242_Thermocouple V0.2-lib-20180903\SoftWare-BH66F5242_Thermocouple V0.2-lib\User\Uart.c"
 222  0000  0F55        	mov a,85
 222  0001  0080     R  	mov _array_uart_txbuff[0],a
 223  0002              #line 223 "E:\旧电脑资料\收集的资料\手册\合泰\BH66F5242热电偶资料\SoftWare-BH66F5242_Thermocouple V0.2-lib-20180903\SoftWare-BH66F5242_Thermocouple V0.2-lib\User\Uart.c"
 223  0002  0F05        	mov a,5
 223  0003  0080     R  	mov _array_uart_txbuff[1],a
 224  0004              #line 224 "E:\旧电脑资料\收集的资料\手册\合泰\BH66F5242热电偶资料\SoftWare-BH66F5242_Thermocouple V0.2-lib-20180903\SoftWare-BH66F5242_Thermocouple V0.2-lib\User\Uart.c"
 224  0004  1F00     R  	clr _array_uart_txbuff[3]
 228  0005              #line 228 "E:\旧电脑资料\收集的资料\手册\合泰\BH66F5242热电偶资料\SoftWare-BH66F5242_Thermocouple V0.2-lib-20180903\SoftWare-BH66F5242_Thermocouple V0.2-lib\User\Uart.c"
 228  0005  3800     E  	snz _gu8v_sys_flag[0].3
 228  0006  2800     R  	jmp _L28
 230  0007              #line 230 "E:\旧电脑资料\收集的资料\手册\合泰\BH66F5242热电偶资料\SoftWare-BH66F5242_Thermocouple V0.2-lib-20180903\SoftWare-BH66F5242_Thermocouple V0.2-lib\User\Uart.c"
 230  0007  3400     E  	clr _gu8v_sys_flag[0].3
 231  0008              #line 231 "E:\旧电脑资料\收集的资料\手册\合泰\BH66F5242热电偶资料\SoftWare-BH66F5242_Thermocouple V0.2-lib-20180903\SoftWare-BH66F5242_Thermocouple V0.2-lib\User\Uart.c"
 231  0008  0F81        	mov a,129
 231  0009  0080     R  	mov _array_uart_txbuff[2],a
 232  000A              #line 232 "E:\旧电脑资料\收集的资料\手册\合泰\BH66F5242热电偶资料\SoftWare-BH66F5242_Thermocouple V0.2-lib-20180903\SoftWare-BH66F5242_Thermocouple V0.2-lib\User\Uart.c"
 232  000A  0700     E  	mov a,_gu16v_tp_temp[1]
 232  000B  0080     R  	mov _array_uart_txbuff[4],a
 233  000C              #line 233 "E:\旧电脑资料\收集的资料\手册\合泰\BH66F5242热电偶资料\SoftWare-BH66F5242_Thermocouple V0.2-lib-20180903\SoftWare-BH66F5242_Thermocouple V0.2-lib\User\Uart.c"
 233  000C  0700     E  	mov a,_gu16v_tp_temp[0]
 233  000D  0080     R  	mov _array_uart_txbuff[5],a
 233  000E  2800     R  	jmp _L29
 233  000F              _L28:
 243  000F              #line 243 "E:\旧电脑资料\收集的资料\手册\合泰\BH66F5242热电偶资料\SoftWare-BH66F5242_Thermocouple V0.2-lib-20180903\SoftWare-BH66F5242_Thermocouple V0.2-lib\User\Uart.c"
 243  000F  0F80        	mov a,128
 243  0010  0080     R  	mov _array_uart_txbuff[2],a
 244  0011              #line 244 "E:\旧电脑资料\收集的资料\手册\合泰\BH66F5242热电偶资料\SoftWare-BH66F5242_Thermocouple V0.2-lib-20180903\SoftWare-BH66F5242_Thermocouple V0.2-lib\User\Uart.c"
 244  0011  1F00     R  	clr _array_uart_txbuff[4]
 245  0012              #line 245 "E:\旧电脑资料\收集的资料\手册\合泰\BH66F5242热电偶资料\SoftWare-BH66F5242_Thermocouple V0.2-lib-20180903\SoftWare-BH66F5242_Thermocouple V0.2-lib\User\Uart.c"
 245  0012  1F00     R  	clr _array_uart_txbuff[5]
 245  0013              _L29:
文件：Uart.c       编译器版本 HGASM 0202 页次8

 255  0013              #line 255 "E:\旧电脑资料\收集的资料\手册\合泰\BH66F5242热电偶资料\SoftWare-BH66F5242_Thermocouple V0.2-lib-20180903\SoftWare-BH66F5242_Thermocouple V0.2-lib\User\Uart.c"
 255  0013  1F00     R  	clr _array_uart_txbuff[6]
 256  0014              #line 256 "E:\旧电脑资料\收集的资料\手册\合泰\BH66F5242热电偶资料\SoftWare-BH66F5242_Thermocouple V0.2-lib-20180903\SoftWare-BH66F5242_Thermocouple V0.2-lib\User\Uart.c"
 256  0014  1F00     E  	clr ra
 256  0015              _L30:
 256  0015  0700     R  	mov a,_array_uart_txbuff[1]
 256  0016  0200     E  	sub a,ra
 256  0017  380A        	snz c
 256  0018  2800     R  	jmp _L32
 258  0019              #line 258 "E:\旧电脑资料\收集的资料\手册\合泰\BH66F5242热电偶资料\SoftWare-BH66F5242_Thermocouple V0.2-lib-20180903\SoftWare-BH66F5242_Thermocouple V0.2-lib\User\Uart.c"
 258  0019  0F00     R  	mov a,low offset _array_uart_txbuff
 258  001A  0300     E  	add a,ra
 258  001B  0083        	mov mp,a
 258  001C  0F00     R  	mov a,high offset _array_uart_txbuff
 258  001D  1F04        	clr sbp
 258  001E  1384        	adcm a,sbp
 258  001F  2000     E  	call _Crom2Prom
 258  0020  0080     E  	mov rb,a
 258  0021  0700     E  	mov a,rb
 258  0022  0380     R  	addm a,_array_uart_txbuff[6]
 256  0023              #line 256 "E:\旧电脑资料\收集的资料\手册\合泰\BH66F5242热电偶资料\SoftWare-BH66F5242_Thermocouple V0.2-lib-20180903\SoftWare-BH66F5242_Thermocouple V0.2-lib\User\Uart.c"
 256  0023  1480     E  	inc ra
 256  0024  2800     R  	jmp _L30
 256  0025              _L32:
 261  0025              #line 261 "E:\旧电脑资料\收集的资料\手册\合泰\BH66F5242热电偶资料\SoftWare-BH66F5242_Thermocouple V0.2-lib-20180903\SoftWare-BH66F5242_Thermocouple V0.2-lib\User\Uart.c"
 261  0025  1F00     R  	clr _gu8v_tx_guide[0]
 262  0026              #line 262 "E:\旧电脑资料\收集的资料\手册\合泰\BH66F5242热电偶资料\SoftWare-BH66F5242_Thermocouple V0.2-lib-20180903\SoftWare-BH66F5242_Thermocouple V0.2-lib\User\Uart.c"
 262  0026  0F07        	mov a,7
 262  0027  0080     R  	mov _gu8v_tx_lenght[0],a
 263  0028              #line 263 "E:\旧电脑资料\收集的资料\手册\合泰\BH66F5242热电偶资料\SoftWare-BH66F5242_Thermocouple V0.2-lib-20180903\SoftWare-BH66F5242_Thermocouple V0.2-lib\User\Uart.c"
 263  0028  0700     R  	mov a,_array_uart_txbuff[0]
 263  0029  00D9        	mov [89],a
 263  002A  0003        	ret
 263  002B              _Uart_check_ack endp
 263  002B              #line 263 "E:\旧电脑资料\收集的资料\手册\合泰\BH66F5242热电偶资料\SoftWare-BH66F5242_Thermocouple V0.2-lib-20180903\SoftWare-BH66F5242_Thermocouple V0.2-lib\User\Uart.c"
 263  002B              #pragma debug scope 1 1
 263  002B              public _Uart_cal_ack
 263  002B              #pragma debug scope 10 1
 277  002B              #line 277 "E:\旧电脑资料\收集的资料\手册\合泰\BH66F5242热电偶资料\SoftWare-BH66F5242_Thermocouple V0.2-lib-20180903\SoftWare-BH66F5242_Thermocouple V0.2-lib\User\Uart.c"
 277  0000              _Uart_cal_ack .section 'code'
 277  0000              _Uart_cal_ack proc
 278  0000              #line 278 "E:\旧电脑资料\收集的资料\手册\合泰\BH66F5242热电偶资料\SoftWare-BH66F5242_Thermocouple V0.2-lib-20180903\SoftWare-BH66F5242_Thermocouple V0.2-lib\User\Uart.c"
 278  0000  3400     E  	clr _gu8v_sys_flag[0].3
 280  0001              #line 280 "E:\旧电脑资料\收集的资料\手册\合泰\BH66F5242热电偶资料\SoftWare-BH66F5242_Thermocouple V0.2-lib-20180903\SoftWare-BH66F5242_Thermocouple V0.2-lib\User\Uart.c"
 280  0001  0F55        	mov a,85
 280  0002  0080     R  	mov _array_uart_txbuff[0],a
 281  0003              #line 281 "E:\旧电脑资料\收集的资料\手册\合泰\BH66F5242热电偶资料\SoftWare-BH66F5242_Thermocouple V0.2-lib-20180903\SoftWare-BH66F5242_Thermocouple V0.2-lib\User\Uart.c"
 281  0003  0F03        	mov a,3
 281  0004  0080     R  	mov _array_uart_txbuff[1],a
 282  0005              #line 282 "E:\旧电脑资料\收集的资料\手册\合泰\BH66F5242热电偶资料\SoftWare-BH66F5242_Thermocouple V0.2-lib-20180903\SoftWare-BH66F5242_Thermocouple V0.2-lib\User\Uart.c"
 282  0005  0F10        	mov a,16
 282  0006  0080     R  	mov _array_uart_txbuff[2],a
 283  0007              #line 283 "E:\旧电脑资料\收集的资料\手册\合泰\BH66F5242热电偶资料\SoftWare-BH66F5242_Thermocouple V0.2-lib-20180903\SoftWare-BH66F5242_Thermocouple V0.2-lib\User\Uart.c"
 283  0007  1F00     R  	clr _array_uart_txbuff[3]
 284  0008              #line 284 "E:\旧电脑资料\收集的资料\手册\合泰\BH66F5242热电偶资料\SoftWare-BH66F5242_Thermocouple V0.2-lib-20180903\SoftWare-BH66F5242_Thermocouple V0.2-lib\User\Uart.c"
 284  0008  1F00     R  	clr _array_uart_txbuff[4]
 285  0009              #line 285 "E:\旧电脑资料\收集的资料\手册\合泰\BH66F5242热电偶资料\SoftWare-BH66F5242_Thermocouple V0.2-lib-20180903\SoftWare-BH66F5242_Thermocouple V0.2-lib\User\Uart.c"
 285  0009  1F00     E  	clr ra
 285  000A              _L34:
 285  000A              #line 285 "E:\旧电脑资料\收集的资料\手册\合泰\BH66F5242热电偶资料\SoftWare-BH66F5242_Thermocouple V0.2-lib-20180903\SoftWare-BH66F5242_Thermocouple V0.2-lib\User\Uart.c"
文件：Uart.c       编译器版本 HGASM 0202 页次9

 285  000A  0700     R  	mov a,_array_uart_txbuff[1]
 285  000B  0200     E  	sub a,ra
 285  000C  380A        	snz c
 285  000D  2800     R  	jmp _L36
 287  000E              #line 287 "E:\旧电脑资料\收集的资料\手册\合泰\BH66F5242热电偶资料\SoftWare-BH66F5242_Thermocouple V0.2-lib-20180903\SoftWare-BH66F5242_Thermocouple V0.2-lib\User\Uart.c"
 287  000E  0F00     R  	mov a,low offset _array_uart_txbuff
 287  000F  0300     E  	add a,ra
 287  0010  0083        	mov mp,a
 287  0011  0F00     R  	mov a,high offset _array_uart_txbuff
 287  0012  1F04        	clr sbp
 287  0013  1384        	adcm a,sbp
 287  0014  2000     E  	call _Crom2Prom
 287  0015  0080     E  	mov rb,a
 287  0016  0700     E  	mov a,rb
 287  0017  0380     R  	addm a,_array_uart_txbuff[4]
 285  0018              #line 285 "E:\旧电脑资料\收集的资料\手册\合泰\BH66F5242热电偶资料\SoftWare-BH66F5242_Thermocouple V0.2-lib-20180903\SoftWare-BH66F5242_Thermocouple V0.2-lib\User\Uart.c"
 285  0018  1480     E  	inc ra
 285  0019  2800     R  	jmp _L34
 285  001A              _L36:
 290  001A              #line 290 "E:\旧电脑资料\收集的资料\手册\合泰\BH66F5242热电偶资料\SoftWare-BH66F5242_Thermocouple V0.2-lib-20180903\SoftWare-BH66F5242_Thermocouple V0.2-lib\User\Uart.c"
 290  001A  1F00     R  	clr _gu8v_tx_guide[0]
 291  001B              #line 291 "E:\旧电脑资料\收集的资料\手册\合泰\BH66F5242热电偶资料\SoftWare-BH66F5242_Thermocouple V0.2-lib-20180903\SoftWare-BH66F5242_Thermocouple V0.2-lib\User\Uart.c"
 291  001B  0F05        	mov a,5
 291  001C  0080     R  	mov _gu8v_tx_lenght[0],a
 292  001D              #line 292 "E:\旧电脑资料\收集的资料\手册\合泰\BH66F5242热电偶资料\SoftWare-BH66F5242_Thermocouple V0.2-lib-20180903\SoftWare-BH66F5242_Thermocouple V0.2-lib\User\Uart.c"
 292  001D  0700     R  	mov a,_array_uart_txbuff[0]
 292  001E  00D9        	mov [89],a
 292  001F  0003        	ret
 292  0020              _Uart_cal_ack endp
 292  0020              #line 292 "E:\旧电脑资料\收集的资料\手册\合泰\BH66F5242热电偶资料\SoftWare-BH66F5242_Thermocouple V0.2-lib-20180903\SoftWare-BH66F5242_Thermocouple V0.2-lib\User\Uart.c"
 292  0020              #pragma debug scope 1 1
 292  0020              public _Uart_cal_templ_ack
 292  0020              #pragma debug scope 11 1
 304  0020              #line 304 "E:\旧电脑资料\收集的资料\手册\合泰\BH66F5242热电偶资料\SoftWare-BH66F5242_Thermocouple V0.2-lib-20180903\SoftWare-BH66F5242_Thermocouple V0.2-lib\User\Uart.c"
 304  0000              _Uart_cal_templ_ack .section 'code'
 304  0000              _Uart_cal_templ_ack proc
 305  0000              #line 305 "E:\旧电脑资料\收集的资料\手册\合泰\BH66F5242热电偶资料\SoftWare-BH66F5242_Thermocouple V0.2-lib-20180903\SoftWare-BH66F5242_Thermocouple V0.2-lib\User\Uart.c"
 305  0000  3400     E  	clr _gu8v_sys_flag[0].3
 307  0001              #line 307 "E:\旧电脑资料\收集的资料\手册\合泰\BH66F5242热电偶资料\SoftWare-BH66F5242_Thermocouple V0.2-lib-20180903\SoftWare-BH66F5242_Thermocouple V0.2-lib\User\Uart.c"
 307  0001  0F55        	mov a,85
 307  0002  0080     R  	mov _array_uart_txbuff[0],a
 308  0003              #line 308 "E:\旧电脑资料\收集的资料\手册\合泰\BH66F5242热电偶资料\SoftWare-BH66F5242_Thermocouple V0.2-lib-20180903\SoftWare-BH66F5242_Thermocouple V0.2-lib\User\Uart.c"
 308  0003  0F03        	mov a,3
 308  0004  0080     R  	mov _array_uart_txbuff[1],a
 309  0005              #line 309 "E:\旧电脑资料\收集的资料\手册\合泰\BH66F5242热电偶资料\SoftWare-BH66F5242_Thermocouple V0.2-lib-20180903\SoftWare-BH66F5242_Thermocouple V0.2-lib\User\Uart.c"
 309  0005  0F11        	mov a,17
 309  0006  0080     R  	mov _array_uart_txbuff[2],a
 310  0007              #line 310 "E:\旧电脑资料\收集的资料\手册\合泰\BH66F5242热电偶资料\SoftWare-BH66F5242_Thermocouple V0.2-lib-20180903\SoftWare-BH66F5242_Thermocouple V0.2-lib\User\Uart.c"
 310  0007  1F00     R  	clr _array_uart_txbuff[3]
 311  0008              #line 311 "E:\旧电脑资料\收集的资料\手册\合泰\BH66F5242热电偶资料\SoftWare-BH66F5242_Thermocouple V0.2-lib-20180903\SoftWare-BH66F5242_Thermocouple V0.2-lib\User\Uart.c"
 311  0008  1F00     R  	clr _array_uart_txbuff[4]
 312  0009              #line 312 "E:\旧电脑资料\收集的资料\手册\合泰\BH66F5242热电偶资料\SoftWare-BH66F5242_Thermocouple V0.2-lib-20180903\SoftWare-BH66F5242_Thermocouple V0.2-lib\User\Uart.c"
 312  0009  1F00     E  	clr ra
 312  000A              _L38:
 312  000A              #line 312 "E:\旧电脑资料\收集的资料\手册\合泰\BH66F5242热电偶资料\SoftWare-BH66F5242_Thermocouple V0.2-lib-20180903\SoftWare-BH66F5242_Thermocouple V0.2-lib\User\Uart.c"
 312  000A  0700     R  	mov a,_array_uart_txbuff[1]
 312  000B  0200     E  	sub a,ra
 312  000C  380A        	snz c
 312  000D  2800     R  	jmp _L40
 314  000E              #line 314 "E:\旧电脑资料\收集的资料\手册\合泰\BH66F5242热电偶资料\SoftWare-BH66F5242_Thermocouple V0.2-lib-20180903\SoftWare-BH66F5242_Thermocouple V0.2-lib\User\Uart.c"
文件：Uart.c       编译器版本 HGASM 0202 页次10

 314  000E  0F00     R  	mov a,low offset _array_uart_txbuff
 314  000F  0300     E  	add a,ra
 314  0010  0083        	mov mp,a
 314  0011  0F00     R  	mov a,high offset _array_uart_txbuff
 314  0012  1F04        	clr sbp
 314  0013  1384        	adcm a,sbp
 314  0014  2000     E  	call _Crom2Prom
 314  0015  0080     E  	mov rb,a
 314  0016  0700     E  	mov a,rb
 314  0017  0380     R  	addm a,_array_uart_txbuff[4]
 312  0018              #line 312 "E:\旧电脑资料\收集的资料\手册\合泰\BH66F5242热电偶资料\SoftWare-BH66F5242_Thermocouple V0.2-lib-20180903\SoftWare-BH66F5242_Thermocouple V0.2-lib\User\Uart.c"
 312  0018  1480     E  	inc ra
 312  0019  2800     R  	jmp _L38
 312  001A              _L40:
 317  001A              #line 317 "E:\旧电脑资料\收集的资料\手册\合泰\BH66F5242热电偶资料\SoftWare-BH66F5242_Thermocouple V0.2-lib-20180903\SoftWare-BH66F5242_Thermocouple V0.2-lib\User\Uart.c"
 317  001A  1F00     R  	clr _gu8v_tx_guide[0]
 318  001B              #line 318 "E:\旧电脑资料\收集的资料\手册\合泰\BH66F5242热电偶资料\SoftWare-BH66F5242_Thermocouple V0.2-lib-20180903\SoftWare-BH66F5242_Thermocouple V0.2-lib\User\Uart.c"
 318  001B  0F05        	mov a,5
 318  001C  0080     R  	mov _gu8v_tx_lenght[0],a
 319  001D              #line 319 "E:\旧电脑资料\收集的资料\手册\合泰\BH66F5242热电偶资料\SoftWare-BH66F5242_Thermocouple V0.2-lib-20180903\SoftWare-BH66F5242_Thermocouple V0.2-lib\User\Uart.c"
 319  001D  0700     R  	mov a,_array_uart_txbuff[0]
 319  001E  00D9        	mov [89],a
 319  001F  0003        	ret
 319  0020              _Uart_cal_templ_ack endp
 319  0020              #line 319 "E:\旧电脑资料\收集的资料\手册\合泰\BH66F5242热电偶资料\SoftWare-BH66F5242_Thermocouple V0.2-lib-20180903\SoftWare-BH66F5242_Thermocouple V0.2-lib\User\Uart.c"
 319  0020              #pragma debug scope 1 1
 319  0020              public _Uart_cal_temph_ack
 319  0020              #pragma debug scope 12 1
 331  0020              #line 331 "E:\旧电脑资料\收集的资料\手册\合泰\BH66F5242热电偶资料\SoftWare-BH66F5242_Thermocouple V0.2-lib-20180903\SoftWare-BH66F5242_Thermocouple V0.2-lib\User\Uart.c"
 331  0000              _Uart_cal_temph_ack .section 'code'
 331  0000              _Uart_cal_temph_ack proc
 332  0000              #line 332 "E:\旧电脑资料\收集的资料\手册\合泰\BH66F5242热电偶资料\SoftWare-BH66F5242_Thermocouple V0.2-lib-20180903\SoftWare-BH66F5242_Thermocouple V0.2-lib\User\Uart.c"
 332  0000  3400     E  	clr _gu8v_sys_flag[0].3
 334  0001              #line 334 "E:\旧电脑资料\收集的资料\手册\合泰\BH66F5242热电偶资料\SoftWare-BH66F5242_Thermocouple V0.2-lib-20180903\SoftWare-BH66F5242_Thermocouple V0.2-lib\User\Uart.c"
 334  0001  0F55        	mov a,85
 334  0002  0080     R  	mov _array_uart_txbuff[0],a
 335  0003              #line 335 "E:\旧电脑资料\收集的资料\手册\合泰\BH66F5242热电偶资料\SoftWare-BH66F5242_Thermocouple V0.2-lib-20180903\SoftWare-BH66F5242_Thermocouple V0.2-lib\User\Uart.c"
 335  0003  0F03        	mov a,3
 335  0004  0080     R  	mov _array_uart_txbuff[1],a
 336  0005              #line 336 "E:\旧电脑资料\收集的资料\手册\合泰\BH66F5242热电偶资料\SoftWare-BH66F5242_Thermocouple V0.2-lib-20180903\SoftWare-BH66F5242_Thermocouple V0.2-lib\User\Uart.c"
 336  0005  0F12        	mov a,18
 336  0006  0080     R  	mov _array_uart_txbuff[2],a
 337  0007              #line 337 "E:\旧电脑资料\收集的资料\手册\合泰\BH66F5242热电偶资料\SoftWare-BH66F5242_Thermocouple V0.2-lib-20180903\SoftWare-BH66F5242_Thermocouple V0.2-lib\User\Uart.c"
 337  0007  1F00     R  	clr _array_uart_txbuff[3]
 338  0008              #line 338 "E:\旧电脑资料\收集的资料\手册\合泰\BH66F5242热电偶资料\SoftWare-BH66F5242_Thermocouple V0.2-lib-20180903\SoftWare-BH66F5242_Thermocouple V0.2-lib\User\Uart.c"
 338  0008  1F00     R  	clr _array_uart_txbuff[4]
 339  0009              #line 339 "E:\旧电脑资料\收集的资料\手册\合泰\BH66F5242热电偶资料\SoftWare-BH66F5242_Thermocouple V0.2-lib-20180903\SoftWare-BH66F5242_Thermocouple V0.2-lib\User\Uart.c"
 339  0009  1F00     E  	clr ra
 339  000A              _L42:
 339  000A              #line 339 "E:\旧电脑资料\收集的资料\手册\合泰\BH66F5242热电偶资料\SoftWare-BH66F5242_Thermocouple V0.2-lib-20180903\SoftWare-BH66F5242_Thermocouple V0.2-lib\User\Uart.c"
 339  000A  0700     R  	mov a,_array_uart_txbuff[1]
 339  000B  0200     E  	sub a,ra
 339  000C  380A        	snz c
 339  000D  2800     R  	jmp _L44
 341  000E              #line 341 "E:\旧电脑资料\收集的资料\手册\合泰\BH66F5242热电偶资料\SoftWare-BH66F5242_Thermocouple V0.2-lib-20180903\SoftWare-BH66F5242_Thermocouple V0.2-lib\User\Uart.c"
 341  000E  0F00     R  	mov a,low offset _array_uart_txbuff
 341  000F  0300     E  	add a,ra
 341  0010  0083        	mov mp,a
 341  0011  0F00     R  	mov a,high offset _array_uart_txbuff
 341  0012  1F04        	clr sbp
文件：Uart.c       编译器版本 HGASM 0202 页次11

 341  0013  1384        	adcm a,sbp
 341  0014  2000     E  	call _Crom2Prom
 341  0015  0080     E  	mov rb,a
 341  0016  0700     E  	mov a,rb
 341  0017  0380     R  	addm a,_array_uart_txbuff[4]
 339  0018              #line 339 "E:\旧电脑资料\收集的资料\手册\合泰\BH66F5242热电偶资料\SoftWare-BH66F5242_Thermocouple V0.2-lib-20180903\SoftWare-BH66F5242_Thermocouple V0.2-lib\User\Uart.c"
 339  0018  1480     E  	inc ra
 339  0019  2800     R  	jmp _L42
 339  001A              _L44:
 344  001A              #line 344 "E:\旧电脑资料\收集的资料\手册\合泰\BH66F5242热电偶资料\SoftWare-BH66F5242_Thermocouple V0.2-lib-20180903\SoftWare-BH66F5242_Thermocouple V0.2-lib\User\Uart.c"
 344  001A  1F00     R  	clr _gu8v_tx_guide[0]
 345  001B              #line 345 "E:\旧电脑资料\收集的资料\手册\合泰\BH66F5242热电偶资料\SoftWare-BH66F5242_Thermocouple V0.2-lib-20180903\SoftWare-BH66F5242_Thermocouple V0.2-lib\User\Uart.c"
 345  001B  0F05        	mov a,5
 345  001C  0080     R  	mov _gu8v_tx_lenght[0],a
 346  001D              #line 346 "E:\旧电脑资料\收集的资料\手册\合泰\BH66F5242热电偶资料\SoftWare-BH66F5242_Thermocouple V0.2-lib-20180903\SoftWare-BH66F5242_Thermocouple V0.2-lib\User\Uart.c"
 346  001D  0700     R  	mov a,_array_uart_txbuff[0]
 346  001E  00D9        	mov [89],a
 346  001F  0003        	ret
 346  0020              _Uart_cal_temph_ack endp
 346  0020              #line 346 "E:\旧电脑资料\收集的资料\手册\合泰\BH66F5242热电偶资料\SoftWare-BH66F5242_Thermocouple V0.2-lib-20180903\SoftWare-BH66F5242_Thermocouple V0.2-lib\User\Uart.c"
 346  0020              #pragma debug scope 1 1
 346  0020              public _Uart_manage
 346  0020              #pragma debug scope 13 1
 359  0020              #line 359 "E:\旧电脑资料\收集的资料\手册\合泰\BH66F5242热电偶资料\SoftWare-BH66F5242_Thermocouple V0.2-lib-20180903\SoftWare-BH66F5242_Thermocouple V0.2-lib\User\Uart.c"
 359  0000              _Uart_manage .section 'code'
 359  0000              _Uart_manage proc
 359  0000  00              local _Uart_manage_2 db 1 dup(?)	; 0,1
 360  0001              #line 360 "E:\旧电脑资料\收集的资料\手册\合泰\BH66F5242热电偶资料\SoftWare-BH66F5242_Thermocouple V0.2-lib-20180903\SoftWare-BH66F5242_Thermocouple V0.2-lib\User\Uart.c"
 360  0000  3800     R  	snz _gu8v_uart_flag[0].1
 360  0001  2800     R  	jmp _L45
 362  0002              #line 362 "E:\旧电脑资料\收集的资料\手册\合泰\BH66F5242热电偶资料\SoftWare-BH66F5242_Thermocouple V0.2-lib-20180903\SoftWare-BH66F5242_Thermocouple V0.2-lib\User\Uart.c"
 362  0002  3400     R  	clr _gu8v_uart_flag[0].1
 365  0003              #line 365 "E:\旧电脑资料\收集的资料\手册\合泰\BH66F5242热电偶资料\SoftWare-BH66F5242_Thermocouple V0.2-lib-20180903\SoftWare-BH66F5242_Thermocouple V0.2-lib\User\Uart.c"
 365  0003  0700     R  	mov a,_array_uart_rxbuff[2]
 365  0004  0080     R  	mov _Uart_manage_2[0],a
 365  0005  0700     R  	mov a,_Uart_manage_2[0]
 365  0006  0A01        	sub a,1
 365  0007  3D0A        	sz z
 365  0008  2800     R  	jmp _L47
 365  0009  0A01        	sub a,(2)-(1)
 365  000A  3D0A        	sz z
 365  000B  2800     R  	jmp _L48
 365  000C  0700     R  	mov a,_Uart_manage_2[0]
 365  000D  0A10        	sub a,16
 365  000E  3D0A        	sz z
 365  000F  2800     R  	jmp _L49
 365  0010  0A01        	sub a,(17)-(16)
 365  0011  3D0A        	sz z
 365  0012  2800     R  	jmp _L50
 365  0013  0700     R  	mov a,_Uart_manage_2[0]
 365  0014  0A12        	sub a,18
 365  0015  390A        	snz z
 365  0016  2800     R  	jmp _L45
 411  0017              #line 411 "E:\旧电脑资料\收集的资料\手册\合泰\BH66F5242热电偶资料\SoftWare-BH66F5242_Thermocouple V0.2-lib-20180903\SoftWare-BH66F5242_Thermocouple V0.2-lib\User\Uart.c"
 411  0017  2000     R  	call _Uart_cal_temph_ack
 413  0018              #line 413 "E:\旧电脑资料\收集的资料\手册\合泰\BH66F5242热电偶资料\SoftWare-BH66F5242_Thermocouple V0.2-lib-20180903\SoftWare-BH66F5242_Thermocouple V0.2-lib\User\Uart.c"
 413  0018  3000     E  	set _gu8v_sys_flag[0].7
 414  0019              #line 414 "E:\旧电脑资料\收集的资料\手册\合泰\BH66F5242热电偶资料\SoftWare-BH66F5242_Thermocouple V0.2-lib-20180903\SoftWare-BH66F5242_Thermocouple V0.2-lib\User\Uart.c"
 414  0019  2800     R  	jmp _L45
 414  001A              _L47:
文件：Uart.c       编译器版本 HGASM 0202 页次12

 377  001A              #line 377 "E:\旧电脑资料\收集的资料\手册\合泰\BH66F5242热电偶资料\SoftWare-BH66F5242_Thermocouple V0.2-lib-20180903\SoftWare-BH66F5242_Thermocouple V0.2-lib\User\Uart.c"
 377  001A  2000     R  	call _Uart_single_ack
 379  001B              #line 379 "E:\旧电脑资料\收集的资料\手册\合泰\BH66F5242热电偶资料\SoftWare-BH66F5242_Thermocouple V0.2-lib-20180903\SoftWare-BH66F5242_Thermocouple V0.2-lib\User\Uart.c"
 379  001B  3000     E  	set _gu8v_sys_flag[0].4
 380  001C              #line 380 "E:\旧电脑资料\收集的资料\手册\合泰\BH66F5242热电偶资料\SoftWare-BH66F5242_Thermocouple V0.2-lib-20180903\SoftWare-BH66F5242_Thermocouple V0.2-lib\User\Uart.c"
 380  001C  0F00        	mov a,0
 380  001D  2800     R  	jmp _L55
 380  001E              _L48:
 385  001E              #line 385 "E:\旧电脑资料\收集的资料\手册\合泰\BH66F5242热电偶资料\SoftWare-BH66F5242_Thermocouple V0.2-lib-20180903\SoftWare-BH66F5242_Thermocouple V0.2-lib\User\Uart.c"
 385  001E  2000     R  	call _Uart_check_ack
 388  001F              #line 388 "E:\旧电脑资料\收集的资料\手册\合泰\BH66F5242热电偶资料\SoftWare-BH66F5242_Thermocouple V0.2-lib-20180903\SoftWare-BH66F5242_Thermocouple V0.2-lib\User\Uart.c"
 388  001F  2800     R  	jmp _L45
 388  0020              _L49:
 397  0020              #line 397 "E:\旧电脑资料\收集的资料\手册\合泰\BH66F5242热电偶资料\SoftWare-BH66F5242_Thermocouple V0.2-lib-20180903\SoftWare-BH66F5242_Thermocouple V0.2-lib\User\Uart.c"
 397  0020  2000     R  	call _Uart_cal_ack
 399  0021              #line 399 "E:\旧电脑资料\收集的资料\手册\合泰\BH66F5242热电偶资料\SoftWare-BH66F5242_Thermocouple V0.2-lib-20180903\SoftWare-BH66F5242_Thermocouple V0.2-lib\User\Uart.c"
 399  0021  3000     E  	set _gu8v_sys_flag[0].5
 400  0022              #line 400 "E:\旧电脑资料\收集的资料\手册\合泰\BH66F5242热电偶资料\SoftWare-BH66F5242_Thermocouple V0.2-lib-20180903\SoftWare-BH66F5242_Thermocouple V0.2-lib\User\Uart.c"
 400  0022  0F07        	mov a,7
 400  0023              _L55:
 400  0023  2000     E  	call _Change_Mode
 401  0024              #line 401 "E:\旧电脑资料\收集的资料\手册\合泰\BH66F5242热电偶资料\SoftWare-BH66F5242_Thermocouple V0.2-lib-20180903\SoftWare-BH66F5242_Thermocouple V0.2-lib\User\Uart.c"
 401  0024  2800     R  	jmp _L45
 401  0025              _L50:
 404  0025              #line 404 "E:\旧电脑资料\收集的资料\手册\合泰\BH66F5242热电偶资料\SoftWare-BH66F5242_Thermocouple V0.2-lib-20180903\SoftWare-BH66F5242_Thermocouple V0.2-lib\User\Uart.c"
 404  0025  2000     R  	call _Uart_cal_templ_ack
 406  0026              #line 406 "E:\旧电脑资料\收集的资料\手册\合泰\BH66F5242热电偶资料\SoftWare-BH66F5242_Thermocouple V0.2-lib-20180903\SoftWare-BH66F5242_Thermocouple V0.2-lib\User\Uart.c"
 406  0026  3000     E  	set _gu8v_sys_flag[0].6
 406  0027              _L45:
 406  0027  0003        	ret
 406  0028              _Uart_manage endp
 406  0028              #line 406 "E:\旧电脑资料\收集的资料\手册\合泰\BH66F5242热电偶资料\SoftWare-BH66F5242_Thermocouple V0.2-lib-20180903\SoftWare-BH66F5242_Thermocouple V0.2-lib\User\Uart.c"
 406  0028              #pragma debug scope 1 1
  50  0028              #line 50 "E:\旧电脑资料\收集的资料\手册\合泰\BH66F5242热电偶资料\SoftWare-BH66F5242_Thermocouple V0.2-lib-20180903\SoftWare-BH66F5242_Thermocouple V0.2-lib\User\Uart.c"
  50  0028              public _array_uart_rxbuff
  50  0000              @HCCINIT0_array_uart_rxbuff .section 'data'
  50  0000  000A[       _array_uart_rxbuff	db 10 dup(0)
            00
            ]
  50  000A              #pragma debug array 42 8 10 1
  50  000A              #pragma debug array 42 8 10 1
  50  000A              #pragma debug variable 42 1 _array_uart_rxbuff "array_uart_rxbuff"
  50  000A              
  50  0000              @HCCINIT .section 'data'
  49  0000              #line 49 "E:\旧电脑资料\收集的资料\手册\合泰\BH66F5242热电偶资料\SoftWare-BH66F5242_Thermocouple V0.2-lib-20180903\SoftWare-BH66F5242_Thermocouple V0.2-lib\User\Uart.c"
  49  0000              public _array_uart_txbuff
  49  0000              @HCCINIT0_array_uart_txbuff .section 'data'
  49  0000  0014[       _array_uart_txbuff	db 20 dup(0)
            00
            ]
  49  0014              #pragma debug array 43 8 20 1
  49  0014              #pragma debug array 43 8 20 1
  49  0014              #pragma debug variable 43 1 _array_uart_txbuff "array_uart_txbuff"
  49  0014              
  49  0000              @HCCINIT .section 'data'
  48  0000              #line 48 "E:\旧电脑资料\收集的资料\手册\合泰\BH66F5242热电偶资料\SoftWare-BH66F5242_Thermocouple V0.2-lib-20180903\SoftWare-BH66F5242_Thermocouple V0.2-lib\User\Uart.c"
  48  0000              public _gu8v_uart_flag
  48  0000              @HCCINIT0_gu8v_uart_flag .section 'data'
  48  0000              _gu8v_uart_flag	db 0
  48  0001              #pragma debug struct_end
文件：Uart.c       编译器版本 HGASM 0202 页次13

  48  0001              #pragma debug struct_end
  48  0001              #pragma debug union_end
  48  0001              #pragma debug union_end
  48  0001              #pragma debug variable 45 1 _gu8v_uart_flag "gu8v_uart_flag"
  48  0001              
  48  0000              @HCCINIT .section 'data'
  47  0000              #line 47 "E:\旧电脑资料\收集的资料\手册\合泰\BH66F5242热电偶资料\SoftWare-BH66F5242_Thermocouple V0.2-lib-20180903\SoftWare-BH66F5242_Thermocouple V0.2-lib\User\Uart.c"
  47  0000              public _gu8v_tx_lenght
  47  0000              @HCCINIT0_gu8v_tx_lenght .section 'data'
  47  0000              _gu8v_tx_lenght	db 0
  47  0001              #pragma debug variable 8 1 _gu8v_tx_lenght "gu8v_tx_lenght"
  47  0001              
  47  0000              @HCCINIT .section 'data'
  46  0000              #line 46 "E:\旧电脑资料\收集的资料\手册\合泰\BH66F5242热电偶资料\SoftWare-BH66F5242_Thermocouple V0.2-lib-20180903\SoftWare-BH66F5242_Thermocouple V0.2-lib\User\Uart.c"
  46  0000              public _gu8v_tx_guide
  46  0000              @HCCINIT0_gu8v_tx_guide .section 'data'
  46  0000              _gu8v_tx_guide	db 0
  46  0001              #pragma debug variable 8 1 _gu8v_tx_guide "gu8v_tx_guide"
  46  0001              
  46  0000              @HCCINIT .section 'data'
  45  0000              #line 45 "E:\旧电脑资料\收集的资料\手册\合泰\BH66F5242热电偶资料\SoftWare-BH66F5242_Thermocouple V0.2-lib-20180903\SoftWare-BH66F5242_Thermocouple V0.2-lib\User\Uart.c"
  45  0000              public _gu8v_rx_guide
  45  0000              @HCCINIT0_gu8v_rx_guide .section 'data'
  45  0000              _gu8v_rx_guide	db 0
  45  0001              #pragma debug variable 8 1 _gu8v_rx_guide "gu8v_rx_guide"
  45  0001              
  45  0000              @HCCINIT .section 'data'
  45  0000              #pragma debug struct_end
  45  0000              #pragma debug struct_end
  45  0000              #pragma debug union_end
  45  0000              #pragma debug union_end
  45  0000              #pragma debug variable 47 1 ___intc0 "__intc0" 1
  45  0000              #pragma debug struct_end
  45  0000              #pragma debug struct_end
  45  0000              #pragma debug union_end
  45  0000              #pragma debug union_end
  45  0000              #pragma debug variable 49 1 ___intc1 "__intc1" 1
  45  0000              #pragma debug struct_end
  45  0000              #pragma debug struct_end
  45  0000              #pragma debug union_end
  45  0000              #pragma debug union_end
  45  0000              #pragma debug variable 51 1 ___pas1 "__pas1" 1
  45  0000              #pragma debug struct_end
  45  0000              #pragma debug struct_end
  45  0000              #pragma debug union_end
  45  0000              #pragma debug union_end
  45  0000              #pragma debug variable 53 1 ___simc0 "__simc0" 1
  45  0000              #pragma debug struct_end
  45  0000              #pragma debug struct_end
  45  0000              #pragma debug union_end
  45  0000              #pragma debug union_end
  45  0000              #pragma debug variable 55 1 ___uucr1 "__uucr1" 1
  45  0000              #pragma debug struct_end
  45  0000              #pragma debug struct_end
  45  0000              #pragma debug union_end
  45  0000              #pragma debug union_end
  45  0000              #pragma debug variable 57 1 ___uucr2 "__uucr2" 1
  45  0000              #pragma debug struct_end
  45  0000              #pragma debug struct_end
  45  0000              #pragma debug union_end
文件：Uart.c       编译器版本 HGASM 0202 页次14

  45  0000              #pragma debug union_end
  45  0000              #pragma debug variable 59 1 ___utxr_rxr "__utxr_rxr" 1
  45  0000              #pragma debug struct_end
  45  0000              #pragma debug struct_end
  45  0000              #pragma debug union_end
  45  0000              #pragma debug union_end
  45  0000              #pragma debug variable 61 1 ___ubrg "__ubrg" 1
  45  0000              #pragma debug struct_end
  45  0000              #pragma debug struct_end
  45  0000              #pragma debug union_end
  45  0000              #pragma debug union_end
  45  0000              #pragma debug variable 63 1 ___uusr "__uusr" 1
  45  0000              
  45  0000              ; output external variables
  45  0000              extern _gu16v_tp_temp:byte
  45  0000              extern _gu8v_sys_flag:byte
  45  0000              extern r1:byte
  45  0000              extern r2:byte
  45  0000              extern r3:byte
  45  0000              extern r4:byte
  45  0000              extern r5:byte
  45  0000              extern r6:byte
  45  0000              extern _Change_Mode:near
  45  0000              
  45  0000              ; 
  45  0000              ; Generated by holtek-gcc v3.19, Wed Apr 10 15:18:43 2019
  45  0000              ; Rebuild 115
  45  0000              ; end of file


        0 Errors, 0