文件：Work_mode_polling.c 编译器版本 HGASM 0202 页次1


   1  0000              ; Generated by holtek-gcc v3.19, Wed Apr 10 15:18:43 2019
   2  0000              ; 
   3  0000              ; Configuration:
   4  0000              ;       with long instruction
   5  0000              ;       Single ROM, Multi-RAM
   6  0000              ;       bits_per_rom_unit:16
   7  0000              ;       with mp1
   8  0000              ;       with tbhp, address(0x9)
   9  0000              ;          Use tabrd-const
  10  0000              ;       
  11  0000              ; SFR address of long-instruction arch:
  12  0000              ;    mp0 = -1,1,0
  13  0000              ;    mp1 = 4,3,2
  14  0000              ;    mp2 = 14,13,12
  15  0000              ;    tbp = 9,7,8
  16  0000              ;    acc = 5
  17  0000              ;    pcl = 6
  18  0000              ;    status = 10
  19  0000              ;    bp = 11
  20  0000              ;    intc = 32
  21  0000              ;       
  22  0000              ;       
  23  0000              ; use 'tabrdc' instead of 'tabrd'
  24  0000              ;       
  25  0000              
  26  0000              #pragma translator "holtek-gcc 4.6.4" "3.19" "build 20130711"
  27  0000              ; Rebuild 115
  28  0000              
  29  0000              ir equ [2]
  30  0000              mp equ [3]
  31  0000              sbp equ [4]
  32  0000              acc equ [5]
  33  0000              bp equ [11]
  34  0000              tblp equ [7]
  35  0000              tbhp equ [9]
  36  0000              status equ [10]
  37  0000              c equ [10].0
  38  0000              ac equ [10].1
  39  0000              z equ [10].2
  40  0000              ov equ [10].3
  41  0000              cz equ [10].6
  42  0000              sc equ [10].7
  43  0000              intc equ [32]
  44  0000              
  45  0000              extern ra:byte
  46  0000              extern rb:byte
  47  0000              extern rc:byte
  48  0000              extern rd:byte
  49  0000              extern re:byte
  50  0000              extern rf:byte
  51  0000              extern rg:byte
  52  0000              extern rh:byte
  53  0000              extern _Crom2Prom:near
  54  0000              extern _Crom2PromNext:near
  55  0000              
  56  0000              RAMBANK 0 @BITDATASEC, @BITDATASEC1
  57  0000              @HCCINIT	.section 'data'
  58  0000              @HCCINIT0	.section 'data'
  59  0000              @BITDATASEC	 .section 'data'
文件：Work_mode_polling.ASM 编译器版本 HGASM 0202 页次2

  60  0000              @BITDATASEC1	 .section 'data'
  61  0000              
  62  0000              #pragma debug scope 1 1
  63  0000              	extern __DELAY3:near
  64  0000              	extern __DELAYX3:near
  65  0000              	extern __DELAYX6:near
  66  0000              	extern __DELAYY5:near
  67  0000              	extern __DELAYY3:near
  68  0000              	extern _builtin_holtek_delay_2:byte
  69  0000              public _fun_work_polling
  70  0000              #pragma debug scope 2 1

  39  0000              #line 39 "E:\旧电脑资料\收集的资料\手册\合泰\BH66F5242热电偶资料\SoftWare-BH66F5242_Thermocouple V0.2-lib-20180903\SoftWare-BH66F5242_Thermocouple V0.2-lib\User\Work_mode_polling.c"
  39  0000              _fun_work_polling .section 'code'
  39  0000              _fun_work_polling proc
  39  0000  0003        	ret
  39  0001              _fun_work_polling endp
  39  0001              #line 39 "E:\旧电脑资料\收集的资料\手册\合泰\BH66F5242热电偶资料\SoftWare-BH66F5242_Thermocouple V0.2-lib-20180903\SoftWare-BH66F5242_Thermocouple V0.2-lib\User\Work_mode_polling.c"
  39  0001              #pragma debug scope 1 1
  39  0001              public _fun_500ms_polling
  39  0001              #pragma debug scope 3 1
  94  0001              #line 94 "E:\旧电脑资料\收集的资料\手册\合泰\BH66F5242热电偶资料\SoftWare-BH66F5242_Thermocouple V0.2-lib-20180903\SoftWare-BH66F5242_Thermocouple V0.2-lib\User\Work_mode_polling.c"
  94  0000              _fun_500ms_polling .section 'code'
  94  0000              _fun_500ms_polling proc
  94  0000  0003        	ret
  94  0001              _fun_500ms_polling endp
  94  0001              #line 94 "E:\旧电脑资料\收集的资料\手册\合泰\BH66F5242热电偶资料\SoftWare-BH66F5242_Thermocouple V0.2-lib-20180903\SoftWare-BH66F5242_Thermocouple V0.2-lib\User\Work_mode_polling.c"
  94  0001              #pragma debug scope 1 1
  94  0001              public _Change_Mode
  94  0001              #pragma debug scope 4 1
 107  0001              #line 107 "E:\旧电脑资料\收集的资料\手册\合泰\BH66F5242热电偶资料\SoftWare-BH66F5242_Thermocouple V0.2-lib-20180903\SoftWare-BH66F5242_Thermocouple V0.2-lib\User\Work_mode_polling.c"
 107  0000              _Change_Mode .section 'code'
 107  0000              _Change_Mode proc
 107  0000  00              local _Change_Mode_2 db 1 dup(?)	; 0,1
 107  0000  0080     E  	mov ra,a
 107  0001              #pragma debug variable 8 4 _Change_Mode_2+0 "lu8v_work_mode"
 108  0001              #line 108 "E:\旧电脑资料\收集的资料\手册\合泰\BH66F5242热电偶资料\SoftWare-BH66F5242_Thermocouple V0.2-lib-20180903\SoftWare-BH66F5242_Thermocouple V0.2-lib\User\Work_mode_polling.c"
 108  0001  3400     R  	clr _gu8v_sys_flag[0].2
 109  0002              #line 109 "E:\旧电脑资料\收集的资料\手册\合泰\BH66F5242热电偶资料\SoftWare-BH66F5242_Thermocouple V0.2-lib-20180903\SoftWare-BH66F5242_Thermocouple V0.2-lib\User\Work_mode_polling.c"
 109  0002  0700     E  	mov a,ra
 109  0003  0080     R  	mov _gu8v_work_mode[0],a
 110  0004              #line 110 "E:\旧电脑资料\收集的资料\手册\合泰\BH66F5242热电偶资料\SoftWare-BH66F5242_Thermocouple V0.2-lib-20180903\SoftWare-BH66F5242_Thermocouple V0.2-lib\User\Work_mode_polling.c"
 110  0004  1F00     R  	clr _gu8v_public_time[0]
 111  0005              #line 111 "E:\旧电脑资料\收集的资料\手册\合泰\BH66F5242热电偶资料\SoftWare-BH66F5242_Thermocouple V0.2-lib-20180903\SoftWare-BH66F5242_Thermocouple V0.2-lib\User\Work_mode_polling.c"
 111  0005  1F00     R  	clr _gu8v_public_count[0]
 112  0006              #line 112 "E:\旧电脑资料\收集的资料\手册\合泰\BH66F5242热电偶资料\SoftWare-BH66F5242_Thermocouple V0.2-lib-20180903\SoftWare-BH66F5242_Thermocouple V0.2-lib\User\Work_mode_polling.c"
 112  0006  1F00     R  	clr _gu8v_public_count1[0]
 113  0007              #line 113 "E:\旧电脑资料\收集的资料\手册\合泰\BH66F5242热电偶资料\SoftWare-BH66F5242_Thermocouple V0.2-lib-20180903\SoftWare-BH66F5242_Thermocouple V0.2-lib\User\Work_mode_polling.c"
 113  0007  1F00     E  	clr _gu8v_Key_status[0]
 114  0008              #line 114 "E:\旧电脑资料\收集的资料\手册\合泰\BH66F5242热电偶资料\SoftWare-BH66F5242_Thermocouple V0.2-lib-20180903\SoftWare-BH66F5242_Thermocouple V0.2-lib\User\Work_mode_polling.c"
 114  0008  1F00     R  	clr _gu8v_ntc_sample_mode[0]
 115  0009              #line 115 "E:\旧电脑资料\收集的资料\手册\合泰\BH66F5242热电偶资料\SoftWare-BH66F5242_Thermocouple V0.2-lib-20180903\SoftWare-BH66F5242_Thermocouple V0.2-lib\User\Work_mode_polling.c"
 115  0009  1F00     E  	clr _gu8v_NTCMode[0]
 116  000A              #line 116 "E:\旧电脑资料\收集的资料\手册\合泰\BH66F5242热电偶资料\SoftWare-BH66F5242_Thermocouple V0.2-lib-20180903\SoftWare-BH66F5242_Thermocouple V0.2-lib\User\Work_mode_polling.c"
 116  000A  1F00     E  	clr _gu8v_obj_temp_mode[0]
 117  000B              #line 117 "E:\旧电脑资料\收集的资料\手册\合泰\BH66F5242热电偶资料\SoftWare-BH66F5242_Thermocouple V0.2-lib-20180903\SoftWare-BH66F5242_Thermocouple V0.2-lib\User\Work_mode_polling.c"
 117  000B  1F00     R  	clr _gu8v_correction_mode[0]
 117  000C  0003        	ret
 117  000D              _Change_Mode endp
 117  000D              #line 117 "E:\旧电脑资料\收集的资料\手册\合泰\BH66F5242热电偶资料\SoftWare-BH66F5242_Thermocouple V0.2-lib-20180903\SoftWare-BH66F5242_Thermocouple V0.2-lib\User\Work_mode_polling.c"
文件：Work_mode_polling.c 编译器版本 HGASM 0202 页次3

 117  000D              #pragma debug scope 1 1
 117  000D              public _Sys_HALT
 117  000D              #pragma debug scope 5 1
 127  000D              #line 127 "E:\旧电脑资料\收集的资料\手册\合泰\BH66F5242热电偶资料\SoftWare-BH66F5242_Thermocouple V0.2-lib-20180903\SoftWare-BH66F5242_Thermocouple V0.2-lib\User\Work_mode_polling.c"
 127  0000              _Sys_HALT .section 'code'
 127  0000              _Sys_HALT proc
 128  0000              #line 128 "E:\旧电脑资料\收集的资料\手册\合泰\BH66F5242热电偶资料\SoftWare-BH66F5242_Thermocouple V0.2-lib-20180903\SoftWare-BH66F5242_Thermocouple V0.2-lib\User\Work_mode_polling.c"
 128  0000  0F14        	mov a,20
 128  0001  0080     E  	mov _gu8v_halt_time[0],a
 128  0002  0003        	ret
 128  0003              _Sys_HALT endp
 128  0003              #line 128 "E:\旧电脑资料\收集的资料\手册\合泰\BH66F5242热电偶资料\SoftWare-BH66F5242_Thermocouple V0.2-lib-20180903\SoftWare-BH66F5242_Thermocouple V0.2-lib\User\Work_mode_polling.c"
 128  0003              #pragma debug scope 1 1
 128  0003              public _Sys_Normal
 128  0003              #pragma debug scope 6 1
 140  0003              #line 140 "E:\旧电脑资料\收集的资料\手册\合泰\BH66F5242热电偶资料\SoftWare-BH66F5242_Thermocouple V0.2-lib-20180903\SoftWare-BH66F5242_Thermocouple V0.2-lib\User\Work_mode_polling.c"
 140  0000              _Sys_Normal .section 'code'
 140  0000              _Sys_Normal proc
 143  0000              #line 143 "E:\旧电脑资料\收集的资料\手册\合泰\BH66F5242热电偶资料\SoftWare-BH66F5242_Thermocouple V0.2-lib-20180903\SoftWare-BH66F5242_Thermocouple V0.2-lib\User\Work_mode_polling.c"
 143  0000  3C00     E  	sz _gu8v_Key_status[0].0
 143  0001  2800     R  	jmp _L6
 143  0002              #line 143 "E:\旧电脑资料\收集的资料\手册\合泰\BH66F5242热电偶资料\SoftWare-BH66F5242_Thermocouple V0.2-lib-20180903\SoftWare-BH66F5242_Thermocouple V0.2-lib\User\Work_mode_polling.c"
 143  0002  3800     R  	snz _gu8v_sys_flag[0].4
 143  0003  2800     R  	jmp _L5
 143  0004              _L6:
 145  0004              #line 145 "E:\旧电脑资料\收集的资料\手册\合泰\BH66F5242热电偶资料\SoftWare-BH66F5242_Thermocouple V0.2-lib-20180903\SoftWare-BH66F5242_Thermocouple V0.2-lib\User\Work_mode_polling.c"
 145  0004  3400     E  	clr _gu8v_Key_status[0].0
 146  0005              #line 146 "E:\旧电脑资料\收集的资料\手册\合泰\BH66F5242热电偶资料\SoftWare-BH66F5242_Thermocouple V0.2-lib-20180903\SoftWare-BH66F5242_Thermocouple V0.2-lib\User\Work_mode_polling.c"
 146  0005  3400     R  	clr _gu8v_sys_flag[0].4
 147  0006              #line 147 "E:\旧电脑资料\收集的资料\手册\合泰\BH66F5242热电偶资料\SoftWare-BH66F5242_Thermocouple V0.2-lib-20180903\SoftWare-BH66F5242_Thermocouple V0.2-lib\User\Work_mode_polling.c"
 147  0006  0F03        	mov a,3
 147  0007  2000     R  	call _Change_Mode
 147  0008              _L5:
 147  0008  0003        	ret
 147  0009              _Sys_Normal endp
 147  0009              #line 147 "E:\旧电脑资料\收集的资料\手册\合泰\BH66F5242热电偶资料\SoftWare-BH66F5242_Thermocouple V0.2-lib-20180903\SoftWare-BH66F5242_Thermocouple V0.2-lib\User\Work_mode_polling.c"
 147  0009              #pragma debug scope 1 1
 147  0009              public _sys_time
 147  0009              #pragma debug scope 7 1
 177  0009              #line 177 "E:\旧电脑资料\收集的资料\手册\合泰\BH66F5242热电偶资料\SoftWare-BH66F5242_Thermocouple V0.2-lib-20180903\SoftWare-BH66F5242_Thermocouple V0.2-lib\User\Work_mode_polling.c"
 177  0000              _sys_time .section 'code'
 177  0000              _sys_time proc
 177  0000  00              local _sys_time_2 db 1 dup(?)	; 0,1
 178  0001              #line 178 "E:\旧电脑资料\收集的资料\手册\合泰\BH66F5242热电偶资料\SoftWare-BH66F5242_Thermocouple V0.2-lib-20180903\SoftWare-BH66F5242_Thermocouple V0.2-lib\User\Work_mode_polling.c"
 178  0000  1400     R  	inca _gu8v_sys_time[0]
 178  0001  0080     R  	mov _sys_time_2[0],a
 178  0002  0700     R  	mov a,_sys_time_2[0]
 178  0003  0080     R  	mov _gu8v_sys_time[0],a
 179  0004              #line 179 "E:\旧电脑资料\收集的资料\手册\合泰\BH66F5242热电偶资料\SoftWare-BH66F5242_Thermocouple V0.2-lib-20180903\SoftWare-BH66F5242_Thermocouple V0.2-lib\User\Work_mode_polling.c"
 179  0004  0700     R  	mov a,_sys_time_2[0]
 179  0005  0A32        	sub a,50
 179  0006  390A        	snz z
 179  0007  2800     R  	jmp _L13
 181  0008              #line 181 "E:\旧电脑资料\收集的资料\手册\合泰\BH66F5242热电偶资料\SoftWare-BH66F5242_Thermocouple V0.2-lib-20180903\SoftWare-BH66F5242_Thermocouple V0.2-lib\User\Work_mode_polling.c"
 181  0008  3000     R  	set _gu8v_time_flag[0].1
 182  0009              #line 182 "E:\旧电脑资料\收集的资料\手册\合泰\BH66F5242热电偶资料\SoftWare-BH66F5242_Thermocouple V0.2-lib-20180903\SoftWare-BH66F5242_Thermocouple V0.2-lib\User\Work_mode_polling.c"
 182  0009  1F00     E  	clr ra
 182  000A  3800     R  	snz _gu8v_time_flag[0].2
 182  000B  3000     E  	set ra.2
 182  000C  3400     R  	clr _gu8v_time_flag[0].2
文件：Work_mode_polling.c 编译器版本 HGASM 0202 页次4

 182  000D  2800     R  	jmp _L15
 182  000E              _L13:
 185  000E              #line 185 "E:\旧电脑资料\收集的资料\手册\合泰\BH66F5242热电偶资料\SoftWare-BH66F5242_Thermocouple V0.2-lib-20180903\SoftWare-BH66F5242_Thermocouple V0.2-lib\User\Work_mode_polling.c"
 185  000E  0F63        	mov a,99
 185  000F  0200     R  	sub a,_sys_time_2[0]
 185  0010  3C0A        	sz c
 185  0011  2800     R  	jmp _L12
 187  0012              #line 187 "E:\旧电脑资料\收集的资料\手册\合泰\BH66F5242热电偶资料\SoftWare-BH66F5242_Thermocouple V0.2-lib-20180903\SoftWare-BH66F5242_Thermocouple V0.2-lib\User\Work_mode_polling.c"
 187  0012  1F00     R  	clr _gu8v_sys_time[0]
 188  0013              #line 188 "E:\旧电脑资料\收集的资料\手册\合泰\BH66F5242热电偶资料\SoftWare-BH66F5242_Thermocouple V0.2-lib-20180903\SoftWare-BH66F5242_Thermocouple V0.2-lib\User\Work_mode_polling.c"
 188  0013  3000     R  	set _gu8v_time_flag[0].1
 189  0014              #line 189 "E:\旧电脑资料\收集的资料\手册\合泰\BH66F5242热电偶资料\SoftWare-BH66F5242_Thermocouple V0.2-lib-20180903\SoftWare-BH66F5242_Thermocouple V0.2-lib\User\Work_mode_polling.c"
 189  0014  1F00     E  	clr ra
 189  0015  3800     R  	snz _gu8v_time_flag[0].2
 189  0016  3000     E  	set ra.2
 189  0017  3400     R  	clr _gu8v_time_flag[0].2
 189  0018  0700     E  	mov a,ra
 189  0019  0580     R  	orm a,_gu8v_time_flag[0]
 190  001A              #line 190 "E:\旧电脑资料\收集的资料\手册\合泰\BH66F5242热电偶资料\SoftWare-BH66F5242_Thermocouple V0.2-lib-20180903\SoftWare-BH66F5242_Thermocouple V0.2-lib\User\Work_mode_polling.c"
 190  001A  3000     R  	set _gu8v_time_flag[0].3
 191  001B              #line 191 "E:\旧电脑资料\收集的资料\手册\合泰\BH66F5242热电偶资料\SoftWare-BH66F5242_Thermocouple V0.2-lib-20180903\SoftWare-BH66F5242_Thermocouple V0.2-lib\User\Work_mode_polling.c"
 191  001B  1F00     E  	clr ra
 191  001C  3800     R  	snz _gu8v_time_flag[0].4
 191  001D  3000     E  	set ra.4
 191  001E  3400     R  	clr _gu8v_time_flag[0].4
 191  001F              _L15:
 191  001F  0700     E  	mov a,ra
 191  0020  0580     R  	orm a,_gu8v_time_flag[0]
 191  0021              _L12:
 191  0021  0003        	ret
 191  0022              _sys_time endp
 191  0022              #line 191 "E:\旧电脑资料\收集的资料\手册\合泰\BH66F5242热电偶资料\SoftWare-BH66F5242_Thermocouple V0.2-lib-20180903\SoftWare-BH66F5242_Thermocouple V0.2-lib\User\Work_mode_polling.c"
 191  0022              #pragma debug scope 1 1
 191  0022              public _sys_time_init
 191  0022              #pragma debug scope 8 1
 204  0022              #line 204 "E:\旧电脑资料\收集的资料\手册\合泰\BH66F5242热电偶资料\SoftWare-BH66F5242_Thermocouple V0.2-lib-20180903\SoftWare-BH66F5242_Thermocouple V0.2-lib\User\Work_mode_polling.c"
 204  0000              _sys_time_init .section 'code'
 204  0000              _sys_time_init proc
 205  0000              #line 205 "E:\旧电脑资料\收集的资料\手册\合泰\BH66F5242热电偶资料\SoftWare-BH66F5242_Thermocouple V0.2-lib-20180903\SoftWare-BH66F5242_Thermocouple V0.2-lib\User\Work_mode_polling.c"
 205  0000  1F00     R  	clr _gu8v_sys_time[0]
 206  0001              #line 206 "E:\旧电脑资料\收集的资料\手册\合泰\BH66F5242热电偶资料\SoftWare-BH66F5242_Thermocouple V0.2-lib-20180903\SoftWare-BH66F5242_Thermocouple V0.2-lib\User\Work_mode_polling.c"
 206  0001  3400     R  	clr _gu8v_time_flag[0].1
 207  0002              #line 207 "E:\旧电脑资料\收集的资料\手册\合泰\BH66F5242热电偶资料\SoftWare-BH66F5242_Thermocouple V0.2-lib-20180903\SoftWare-BH66F5242_Thermocouple V0.2-lib\User\Work_mode_polling.c"
 207  0002  3000     R  	set _gu8v_time_flag[0].2
 208  0003              #line 208 "E:\旧电脑资料\收集的资料\手册\合泰\BH66F5242热电偶资料\SoftWare-BH66F5242_Thermocouple V0.2-lib-20180903\SoftWare-BH66F5242_Thermocouple V0.2-lib\User\Work_mode_polling.c"
 208  0003  3400     R  	clr _gu8v_time_flag[0].3
 209  0004              #line 209 "E:\旧电脑资料\收集的资料\手册\合泰\BH66F5242热电偶资料\SoftWare-BH66F5242_Thermocouple V0.2-lib-20180903\SoftWare-BH66F5242_Thermocouple V0.2-lib\User\Work_mode_polling.c"
 209  0004  3000     R  	set _gu8v_time_flag[0].4
 209  0005  0003        	ret
 209  0006              _sys_time_init endp
 209  0006              #line 209 "E:\旧电脑资料\收集的资料\手册\合泰\BH66F5242热电偶资料\SoftWare-BH66F5242_Thermocouple V0.2-lib-20180903\SoftWare-BH66F5242_Thermocouple V0.2-lib\User\Work_mode_polling.c"
 209  0006              #pragma debug scope 1 1
 209  0006              public _Sys_Power_On
 209  0006              #pragma debug scope 9 1
 219  0006              #line 219 "E:\旧电脑资料\收集的资料\手册\合泰\BH66F5242热电偶资料\SoftWare-BH66F5242_Thermocouple V0.2-lib-20180903\SoftWare-BH66F5242_Thermocouple V0.2-lib\User\Work_mode_polling.c"
 219  0000              _Sys_Power_On .section 'code'
 219  0000              _Sys_Power_On proc
 219  0000  0003        	ret
 219  0001              _Sys_Power_On endp
 219  0001              #line 219 "E:\旧电脑资料\收集的资料\手册\合泰\BH66F5242热电偶资料\SoftWare-BH66F5242_Thermocouple V0.2-lib-20180903\SoftWare-BH66F5242_Thermocouple V0.2-lib\User\Work_mode_polling.c"
文件：Work_mode_polling.c 编译器版本 HGASM 0202 页次5

 219  0001              #pragma debug scope 1 1
 219  0001              public _Sys_Time_Dis
 219  0001              #pragma debug scope 10 1
 267  0001              #line 267 "E:\旧电脑资料\收集的资料\手册\合泰\BH66F5242热电偶资料\SoftWare-BH66F5242_Thermocouple V0.2-lib-20180903\SoftWare-BH66F5242_Thermocouple V0.2-lib\User\Work_mode_polling.c"
 267  0000              _Sys_Time_Dis .section 'code'
 267  0000              _Sys_Time_Dis proc
 267  0000  0003        	ret
 267  0001              _Sys_Time_Dis endp
 267  0001              #line 267 "E:\旧电脑资料\收集的资料\手册\合泰\BH66F5242热电偶资料\SoftWare-BH66F5242_Thermocouple V0.2-lib-20180903\SoftWare-BH66F5242_Thermocouple V0.2-lib\User\Work_mode_polling.c"
 267  0001              #pragma debug scope 1 1
 267  0001              public _Sys_Find_History
 267  0001              #pragma debug scope 11 1
 347  0001              #line 347 "E:\旧电脑资料\收集的资料\手册\合泰\BH66F5242热电偶资料\SoftWare-BH66F5242_Thermocouple V0.2-lib-20180903\SoftWare-BH66F5242_Thermocouple V0.2-lib\User\Work_mode_polling.c"
 347  0000              _Sys_Find_History .section 'code'
 347  0000              _Sys_Find_History proc
 347  0000  0003        	ret
 347  0001              _Sys_Find_History endp
 347  0001              #line 347 "E:\旧电脑资料\收集的资料\手册\合泰\BH66F5242热电偶资料\SoftWare-BH66F5242_Thermocouple V0.2-lib-20180903\SoftWare-BH66F5242_Thermocouple V0.2-lib\User\Work_mode_polling.c"
 347  0001              #pragma debug scope 1 1
 347  0001              public _Sys_Pressure_Test
 347  0001              #pragma debug scope 12 1
 374  0001              #line 374 "E:\旧电脑资料\收集的资料\手册\合泰\BH66F5242热电偶资料\SoftWare-BH66F5242_Thermocouple V0.2-lib-20180903\SoftWare-BH66F5242_Thermocouple V0.2-lib\User\Work_mode_polling.c"
 374  0000              _Sys_Pressure_Test .section 'code'
 374  0000              _Sys_Pressure_Test proc
 374  0000  0003        	ret
 374  0001              _Sys_Pressure_Test endp
 374  0001              #line 374 "E:\旧电脑资料\收集的资料\手册\合泰\BH66F5242热电偶资料\SoftWare-BH66F5242_Thermocouple V0.2-lib-20180903\SoftWare-BH66F5242_Thermocouple V0.2-lib\User\Work_mode_polling.c"
 374  0001              #pragma debug scope 1 1
 374  0001              public _Sys_Calibration_Time
 374  0001              #pragma debug scope 13 1
 385  0001              #line 385 "E:\旧电脑资料\收集的资料\手册\合泰\BH66F5242热电偶资料\SoftWare-BH66F5242_Thermocouple V0.2-lib-20180903\SoftWare-BH66F5242_Thermocouple V0.2-lib\User\Work_mode_polling.c"
 385  0000              _Sys_Calibration_Time .section 'code'
 385  0000              _Sys_Calibration_Time proc
 385  0000  00              local _Sys_Calibration_Time_2 db 1 dup(?)	; 0,1
 387  0001              #line 387 "E:\旧电脑资料\收集的资料\手册\合泰\BH66F5242热电偶资料\SoftWare-BH66F5242_Thermocouple V0.2-lib-20180903\SoftWare-BH66F5242_Thermocouple V0.2-lib\User\Work_mode_polling.c"
 387  0000  0700     R  	mov a,_gu8v_correction_mode[0]
 387  0001  0A00        	sub a,0
 387  0002  3D0A        	sz z
 387  0003  2800     R  	jmp _L23
 387  0004  0A01        	sub a,(1)-(0)
 387  0005  3D0A        	sz z
 387  0006  2800     R  	jmp _L24
 387  0007              #line 387 "E:\旧电脑资料\收集的资料\手册\合泰\BH66F5242热电偶资料\SoftWare-BH66F5242_Thermocouple V0.2-lib-20180903\SoftWare-BH66F5242_Thermocouple V0.2-lib\User\Work_mode_polling.c"
 387  0007  0700     R  	mov a,_gu8v_correction_mode[0]
 387  0008  0A02        	sub a,2
 387  0009  3D0A        	sz z
 387  000A  2800     R  	jmp _L25
 387  000B  0A01        	sub a,(3)-(2)
 387  000C  3D0A        	sz z
 387  000D  2800     R  	jmp _L26
 387  000E  0700     R  	mov a,_gu8v_correction_mode[0]
 387  000F  0A04        	sub a,4
 387  0010  390A        	snz z
 387  0011  2800     R  	jmp _L21
 454  0012              #line 454 "E:\旧电脑资料\收集的资料\手册\合泰\BH66F5242热电偶资料\SoftWare-BH66F5242_Thermocouple V0.2-lib-20180903\SoftWare-BH66F5242_Thermocouple V0.2-lib\User\Work_mode_polling.c"
 454  0012  2000     E  	call _fun_RNTC_Calculate
 455  0013              #line 455 "E:\旧电脑资料\收集的资料\手册\合泰\BH66F5242热电偶资料\SoftWare-BH66F5242_Thermocouple V0.2-lib-20180903\SoftWare-BH66F5242_Thermocouple V0.2-lib\User\Work_mode_polling.c"
 455  0013  0700     E  	mov a,_gu16v_ntc_res[0]
 455  0014  0080     E  	mov _fun_Vsen_Calculate_2[0],a
 455  0015  0700     E  	mov a,_gu16v_ntc_res[1]
文件：Work_mode_polling.c 编译器版本 HGASM 0202 页次6

 455  0016  0080     E  	mov _fun_Vsen_Calculate_2[1],a
 455  0017  2000     E  	call _fun_Vsen_Calculate
 457  0018              #line 457 "E:\旧电脑资料\收集的资料\手册\合泰\BH66F5242热电偶资料\SoftWare-BH66F5242_Thermocouple V0.2-lib-20180903\SoftWare-BH66F5242_Thermocouple V0.2-lib\User\Work_mode_polling.c"
 457  0018  2000     E  	call _fun_CORRECTION_Calculate
 459  0019              #line 459 "E:\旧电脑资料\收集的资料\手册\合泰\BH66F5242热电偶资料\SoftWare-BH66F5242_Thermocouple V0.2-lib-20180903\SoftWare-BH66F5242_Thermocouple V0.2-lib\User\Work_mode_polling.c"
 459  0019  0F55        	mov a,85
 459  001A  0080     E  	mov _fun_Write_EEPROM_2[0],a
 459  001B  0F00        	mov a,0
 459  001C  2000     E  	call _fun_Write_EEPROM
 460  001D              #line 460 "E:\旧电脑资料\收集的资料\手册\合泰\BH66F5242热电偶资料\SoftWare-BH66F5242_Thermocouple V0.2-lib-20180903\SoftWare-BH66F5242_Thermocouple V0.2-lib\User\Work_mode_polling.c"
 460  001D  0700     E  	mov a,_gu16v_correction_K1[0]
 460  001E  0080     E  	mov _fun_Write_EEPROM_2[0],a
 460  001F  0F01        	mov a,1
 460  0020  2000     E  	call _fun_Write_EEPROM
 461  0021              #line 461 "E:\旧电脑资料\收集的资料\手册\合泰\BH66F5242热电偶资料\SoftWare-BH66F5242_Thermocouple V0.2-lib-20180903\SoftWare-BH66F5242_Thermocouple V0.2-lib\User\Work_mode_polling.c"
 461  0021  0700     E  	mov a,_gu16v_correction_K1[1]
 461  0022  0080     E  	mov _fun_Write_EEPROM_2[0],a
 461  0023  0F02        	mov a,2
 461  0024  2000     E  	call _fun_Write_EEPROM
 462  0025              #line 462 "E:\旧电脑资料\收集的资料\手册\合泰\BH66F5242热电偶资料\SoftWare-BH66F5242_Thermocouple V0.2-lib-20180903\SoftWare-BH66F5242_Thermocouple V0.2-lib\User\Work_mode_polling.c"
 462  0025  0700     E  	mov a,_gu16v_correction_K2[0]
 462  0026  0080     E  	mov _fun_Write_EEPROM_2[0],a
 462  0027  0F03        	mov a,3
 462  0028  2000     E  	call _fun_Write_EEPROM
 463  0029              #line 463 "E:\旧电脑资料\收集的资料\手册\合泰\BH66F5242热电偶资料\SoftWare-BH66F5242_Thermocouple V0.2-lib-20180903\SoftWare-BH66F5242_Thermocouple V0.2-lib\User\Work_mode_polling.c"
 463  0029  0700     E  	mov a,_gu16v_correction_K2[1]
 463  002A  0080     E  	mov _fun_Write_EEPROM_2[0],a
 463  002B  0F04        	mov a,4
 463  002C  2000     E  	call _fun_Write_EEPROM
 466  002D              #line 466 "E:\旧电脑资料\收集的资料\手册\合泰\BH66F5242热电偶资料\SoftWare-BH66F5242_Thermocouple V0.2-lib-20180903\SoftWare-BH66F5242_Thermocouple V0.2-lib\User\Work_mode_polling.c"
 466  002D  0F00        	mov a,0
 466  002E  2000     R  	call _Change_Mode
 467  002F              #line 467 "E:\旧电脑资料\收集的资料\手册\合泰\BH66F5242热电偶资料\SoftWare-BH66F5242_Thermocouple V0.2-lib-20180903\SoftWare-BH66F5242_Thermocouple V0.2-lib\User\Work_mode_polling.c"
 467  002F  2800     R  	jmp _L21
 467  0030              _L23:
 390  0030              #line 390 "E:\旧电脑资料\收集的资料\手册\合泰\BH66F5242热电偶资料\SoftWare-BH66F5242_Thermocouple V0.2-lib-20180903\SoftWare-BH66F5242_Thermocouple V0.2-lib\User\Work_mode_polling.c"
 390  0030  0F10        	mov a,16
 390  0031  0080     E  	mov _gu16v_correction_K2[0],a
 390  0032  0F27        	mov a,39
 390  0033  0080     E  	mov _gu16v_correction_K2[1],a
 391  0034              #line 391 "E:\旧电脑资料\收集的资料\手册\合泰\BH66F5242热电偶资料\SoftWare-BH66F5242_Thermocouple V0.2-lib-20180903\SoftWare-BH66F5242_Thermocouple V0.2-lib\User\Work_mode_polling.c"
 391  0034  0FC8        	mov a,-56
 391  0035  0080     E  	mov _gu16v_correction_K1[0],a
 391  0036  0F19        	mov a,25
 391  0037  0080     E  	mov _gu16v_correction_K1[1],a
 392  0038              #line 392 "E:\旧电脑资料\收集的资料\手册\合泰\BH66F5242热电偶资料\SoftWare-BH66F5242_Thermocouple V0.2-lib-20180903\SoftWare-BH66F5242_Thermocouple V0.2-lib\User\Work_mode_polling.c"
 392  0038  0F64        	mov a,100
 392  0039  0080     E  	mov _gu16v_cal_templ[0],a
 392  003A  1F00     E  	clr _gu16v_cal_templ[1]
 393  003B              #line 393 "E:\旧电脑资料\收集的资料\手册\合泰\BH66F5242热电偶资料\SoftWare-BH66F5242_Thermocouple V0.2-lib-20180903\SoftWare-BH66F5242_Thermocouple V0.2-lib\User\Work_mode_polling.c"
 393  003B  0F58        	mov a,88
 393  003C  0080     E  	mov _gu16v_cal_temph[0],a
 393  003D  0F02        	mov a,2
 393  003E  0080     E  	mov _gu16v_cal_temph[1],a
 394  003F              #line 394 "E:\旧电脑资料\收集的资料\手册\合泰\BH66F5242热电偶资料\SoftWare-BH66F5242_Thermocouple V0.2-lib-20180903\SoftWare-BH66F5242_Thermocouple V0.2-lib\User\Work_mode_polling.c"
 394  003F  2000     E  	call _fun_get_NTC
 394  0040  0080     E  	mov ra,a
 394  0041  1E00     E  	snz ra
 394  0042  2800     R  	jmp _L28
 396  0043              #line 396 "E:\旧电脑资料\收集的资料\手册\合泰\BH66F5242热电偶资料\SoftWare-BH66F5242_Thermocouple V0.2-lib-20180903\SoftWare-BH66F5242_Thermocouple V0.2-lib\User\Work_mode_polling.c"
文件：Work_mode_polling.c 编译器版本 HGASM 0202 页次7

 396  0043  3000     R  	set _gu8v_sys_flag[0].2
 396  0044              _L28:
 398  0044              #line 398 "E:\旧电脑资料\收集的资料\手册\合泰\BH66F5242热电偶资料\SoftWare-BH66F5242_Thermocouple V0.2-lib-20180903\SoftWare-BH66F5242_Thermocouple V0.2-lib\User\Work_mode_polling.c"
 398  0044  0700     R  	mov a,_gu8v_sys_flag[0]
 398  0045  0080     R  	mov _Sys_Calibration_Time_2[0],a
 398  0046  3800     R  	snz _Sys_Calibration_Time_2[0].2
 398  0047  2800     R  	jmp _L21
 400  0048              #line 400 "E:\旧电脑资料\收集的资料\手册\合泰\BH66F5242热电偶资料\SoftWare-BH66F5242_Thermocouple V0.2-lib-20180903\SoftWare-BH66F5242_Thermocouple V0.2-lib\User\Work_mode_polling.c"
 400  0048  3800     E  	snz _gu8v_Key_status[0].0
 400  0049  2800     R  	jmp _L30
 402  004A              #line 402 "E:\旧电脑资料\收集的资料\手册\合泰\BH66F5242热电偶资料\SoftWare-BH66F5242_Thermocouple V0.2-lib-20180903\SoftWare-BH66F5242_Thermocouple V0.2-lib\User\Work_mode_polling.c"
 402  004A  3400     E  	clr _gu8v_Key_status[0].0
 403  004B              #line 403 "E:\旧电脑资料\收集的资料\手册\合泰\BH66F5242热电偶资料\SoftWare-BH66F5242_Thermocouple V0.2-lib-20180903\SoftWare-BH66F5242_Thermocouple V0.2-lib\User\Work_mode_polling.c"
 403  004B  0F01        	mov a,1
 403  004C  0080     R  	mov _gu8v_correction_mode[0],a
 403  004D              _L30:
 405  004D              #line 405 "E:\旧电脑资料\收集的资料\手册\合泰\BH66F5242热电偶资料\SoftWare-BH66F5242_Thermocouple V0.2-lib-20180903\SoftWare-BH66F5242_Thermocouple V0.2-lib\User\Work_mode_polling.c"
 405  004D  3800     R  	snz _Sys_Calibration_Time_2[0].6
 405  004E  2800     R  	jmp _L21
 407  004F              #line 407 "E:\旧电脑资料\收集的资料\手册\合泰\BH66F5242热电偶资料\SoftWare-BH66F5242_Thermocouple V0.2-lib-20180903\SoftWare-BH66F5242_Thermocouple V0.2-lib\User\Work_mode_polling.c"
 407  004F  3400     R  	clr _gu8v_sys_flag[0].6
 408  0050              #line 408 "E:\旧电脑资料\收集的资料\手册\合泰\BH66F5242热电偶资料\SoftWare-BH66F5242_Thermocouple V0.2-lib-20180903\SoftWare-BH66F5242_Thermocouple V0.2-lib\User\Work_mode_polling.c"
 408  0050  0F01        	mov a,1
 408  0051  0080     R  	mov _gu8v_correction_mode[0],a
 409  0052              #line 409 "E:\旧电脑资料\收集的资料\手册\合泰\BH66F5242热电偶资料\SoftWare-BH66F5242_Thermocouple V0.2-lib-20180903\SoftWare-BH66F5242_Thermocouple V0.2-lib\User\Work_mode_polling.c"
 409  0052  0700     E  	mov a,_array_uart_rxbuff[4]
 409  0053  0080     E  	mov rc,a
 409  0054  1F00     E  	clr rb
 409  0055  0700     E  	mov a,_array_uart_rxbuff[5]
 409  0056  0300     E  	add a,rb
 409  0057  0080     E  	mov _gu16v_cal_templ[0],a
 409  0058  1F05        	clr acc
 409  0059  1300     E  	adc a,rc
 409  005A  0080     E  	mov _gu16v_cal_templ[1],a
 409  005B  2800     R  	jmp _L21
 409  005C              _L24:
 416  005C              #line 416 "E:\旧电脑资料\收集的资料\手册\合泰\BH66F5242热电偶资料\SoftWare-BH66F5242_Thermocouple V0.2-lib-20180903\SoftWare-BH66F5242_Thermocouple V0.2-lib\User\Work_mode_polling.c"
 416  005C  2000     E  	call _fun_get_VTP
 416  005D  0080     E  	mov ra,a
 416  005E  1E00     E  	snz ra
 416  005F  2800     R  	jmp _L21
 418  0060              #line 418 "E:\旧电脑资料\收集的资料\手册\合泰\BH66F5242热电偶资料\SoftWare-BH66F5242_Thermocouple V0.2-lib-20180903\SoftWare-BH66F5242_Thermocouple V0.2-lib\User\Work_mode_polling.c"
 418  0060  1480     R  	inc _gu8v_correction_mode[0]
 419  0061              #line 419 "E:\旧电脑资料\收集的资料\手册\合泰\BH66F5242热电偶资料\SoftWare-BH66F5242_Thermocouple V0.2-lib-20180903\SoftWare-BH66F5242_Thermocouple V0.2-lib\User\Work_mode_polling.c"
 419  0061  3400     R  	clr _gu8v_sys_flag[0].2
 421  0062              #line 421 "E:\旧电脑资料\收集的资料\手册\合泰\BH66F5242热电偶资料\SoftWare-BH66F5242_Thermocouple V0.2-lib-20180903\SoftWare-BH66F5242_Thermocouple V0.2-lib\User\Work_mode_polling.c"
 421  0062  0700     E  	mov a,_gu16v_vtp[0]
 421  0063  0080     E  	mov _gu16v_vtp_buff1[0],a
 421  0064  0700     E  	mov a,_gu16v_vtp[1]
 421  0065  0080     E  	mov _gu16v_vtp_buff1[1],a
 421  0066  0700     E  	mov a,_gu16v_vtp[2]
 421  0067  0080     E  	mov _gu16v_vtp_buff1[2],a
 421  0068  0700     E  	mov a,_gu16v_vtp[3]
 421  0069  0080     E  	mov _gu16v_vtp_buff1[3],a
 421  006A  2800     R  	jmp _L21
 421  006B              _L25:
 427  006B              #line 427 "E:\旧电脑资料\收集的资料\手册\合泰\BH66F5242热电偶资料\SoftWare-BH66F5242_Thermocouple V0.2-lib-20180903\SoftWare-BH66F5242_Thermocouple V0.2-lib\User\Work_mode_polling.c"
 427  006B  3800     E  	snz _gu8v_Key_status[0].0
 427  006C  2800     R  	jmp _L32
 429  006D              #line 429 "E:\旧电脑资料\收集的资料\手册\合泰\BH66F5242热电偶资料\SoftWare-BH66F5242_Thermocouple V0.2-lib-20180903\SoftWare-BH66F5242_Thermocouple V0.2-lib\User\Work_mode_polling.c"
文件：Work_mode_polling.c 编译器版本 HGASM 0202 页次8

 429  006D  3400     E  	clr _gu8v_Key_status[0].0
 430  006E              #line 430 "E:\旧电脑资料\收集的资料\手册\合泰\BH66F5242热电偶资料\SoftWare-BH66F5242_Thermocouple V0.2-lib-20180903\SoftWare-BH66F5242_Thermocouple V0.2-lib\User\Work_mode_polling.c"
 430  006E  0F03        	mov a,3
 430  006F  0080     R  	mov _gu8v_correction_mode[0],a
 430  0070              _L32:
 432  0070              #line 432 "E:\旧电脑资料\收集的资料\手册\合泰\BH66F5242热电偶资料\SoftWare-BH66F5242_Thermocouple V0.2-lib-20180903\SoftWare-BH66F5242_Thermocouple V0.2-lib\User\Work_mode_polling.c"
 432  0070  3800     R  	snz _gu8v_sys_flag[0].7
 432  0071  2800     R  	jmp _L21
 434  0072              #line 434 "E:\旧电脑资料\收集的资料\手册\合泰\BH66F5242热电偶资料\SoftWare-BH66F5242_Thermocouple V0.2-lib-20180903\SoftWare-BH66F5242_Thermocouple V0.2-lib\User\Work_mode_polling.c"
 434  0072  3400     R  	clr _gu8v_sys_flag[0].7
 435  0073              #line 435 "E:\旧电脑资料\收集的资料\手册\合泰\BH66F5242热电偶资料\SoftWare-BH66F5242_Thermocouple V0.2-lib-20180903\SoftWare-BH66F5242_Thermocouple V0.2-lib\User\Work_mode_polling.c"
 435  0073  0F03        	mov a,3
 435  0074  0080     R  	mov _gu8v_correction_mode[0],a
 436  0075              #line 436 "E:\旧电脑资料\收集的资料\手册\合泰\BH66F5242热电偶资料\SoftWare-BH66F5242_Thermocouple V0.2-lib-20180903\SoftWare-BH66F5242_Thermocouple V0.2-lib\User\Work_mode_polling.c"
 436  0075  0700     E  	mov a,_array_uart_rxbuff[4]
 436  0076  0080     E  	mov rc,a
 436  0077  1F00     E  	clr rb
 436  0078  0700     E  	mov a,_array_uart_rxbuff[5]
 436  0079  0300     E  	add a,rb
 436  007A  0080     E  	mov _gu16v_cal_temph[0],a
 436  007B  1F05        	clr acc
 436  007C  1300     E  	adc a,rc
 436  007D  0080     E  	mov _gu16v_cal_temph[1],a
 436  007E  2800     R  	jmp _L21
 436  007F              _L26:
 442  007F              #line 442 "E:\旧电脑资料\收集的资料\手册\合泰\BH66F5242热电偶资料\SoftWare-BH66F5242_Thermocouple V0.2-lib-20180903\SoftWare-BH66F5242_Thermocouple V0.2-lib\User\Work_mode_polling.c"
 442  007F  2000     E  	call _fun_get_VTP
 442  0080  0080     E  	mov ra,a
 442  0081  1E00     E  	snz ra
 442  0082  2800     R  	jmp _L21
 444  0083              #line 444 "E:\旧电脑资料\收集的资料\手册\合泰\BH66F5242热电偶资料\SoftWare-BH66F5242_Thermocouple V0.2-lib-20180903\SoftWare-BH66F5242_Thermocouple V0.2-lib\User\Work_mode_polling.c"
 444  0083  1480     R  	inc _gu8v_correction_mode[0]
 445  0084              #line 445 "E:\旧电脑资料\收集的资料\手册\合泰\BH66F5242热电偶资料\SoftWare-BH66F5242_Thermocouple V0.2-lib-20180903\SoftWare-BH66F5242_Thermocouple V0.2-lib\User\Work_mode_polling.c"
 445  0084  3400     R  	clr _gu8v_sys_flag[0].2
 447  0085              #line 447 "E:\旧电脑资料\收集的资料\手册\合泰\BH66F5242热电偶资料\SoftWare-BH66F5242_Thermocouple V0.2-lib-20180903\SoftWare-BH66F5242_Thermocouple V0.2-lib\User\Work_mode_polling.c"
 447  0085  0700     E  	mov a,_gu16v_vtp[0]
 447  0086  0080     E  	mov _gu16v_vtp_buff2[0],a
 447  0087  0700     E  	mov a,_gu16v_vtp[1]
 447  0088  0080     E  	mov _gu16v_vtp_buff2[1],a
 447  0089  0700     E  	mov a,_gu16v_vtp[2]
 447  008A  0080     E  	mov _gu16v_vtp_buff2[2],a
 447  008B  0700     E  	mov a,_gu16v_vtp[3]
 447  008C  0080     E  	mov _gu16v_vtp_buff2[3],a
 447  008D              _L21:
 447  008D  0003        	ret
 447  008E              _Sys_Calibration_Time endp
 447  008E              #line 447 "E:\旧电脑资料\收集的资料\手册\合泰\BH66F5242热电偶资料\SoftWare-BH66F5242_Thermocouple V0.2-lib-20180903\SoftWare-BH66F5242_Thermocouple V0.2-lib\User\Work_mode_polling.c"
 447  008E              #pragma debug scope 1 1
 447  008E              public _fun_CAL_WEEPROM
 447  008E              #pragma debug scope 14 1
 483  008E              #line 483 "E:\旧电脑资料\收集的资料\手册\合泰\BH66F5242热电偶资料\SoftWare-BH66F5242_Thermocouple V0.2-lib-20180903\SoftWare-BH66F5242_Thermocouple V0.2-lib\User\Work_mode_polling.c"
 483  0000              _fun_CAL_WEEPROM .section 'code'
 483  0000              _fun_CAL_WEEPROM proc
 484  0000              #line 484 "E:\旧电脑资料\收集的资料\手册\合泰\BH66F5242热电偶资料\SoftWare-BH66F5242_Thermocouple V0.2-lib-20180903\SoftWare-BH66F5242_Thermocouple V0.2-lib\User\Work_mode_polling.c"
 484  0000  0F55        	mov a,85
 484  0001  0080     E  	mov _fun_Write_EEPROM_2[0],a
 484  0002  0F00        	mov a,0
 484  0003  2000     E  	call _fun_Write_EEPROM
 485  0004              #line 485 "E:\旧电脑资料\收集的资料\手册\合泰\BH66F5242热电偶资料\SoftWare-BH66F5242_Thermocouple V0.2-lib-20180903\SoftWare-BH66F5242_Thermocouple V0.2-lib\User\Work_mode_polling.c"
 485  0004  0700     E  	mov a,_gu16v_correction_K2[1]
文件：Work_mode_polling.c 编译器版本 HGASM 0202 页次9

 485  0005  0080     E  	mov _fun_Write_EEPROM_2[0],a
 485  0006  0F01        	mov a,1
 485  0007  2000     E  	call _fun_Write_EEPROM
 486  0008              #line 486 "E:\旧电脑资料\收集的资料\手册\合泰\BH66F5242热电偶资料\SoftWare-BH66F5242_Thermocouple V0.2-lib-20180903\SoftWare-BH66F5242_Thermocouple V0.2-lib\User\Work_mode_polling.c"
 486  0008  0700     E  	mov a,_gu16v_correction_K2[0]
 486  0009  0080     E  	mov _fun_Write_EEPROM_2[0],a
 486  000A  0F02        	mov a,2
 486  000B  2000     E  	call _fun_Write_EEPROM
 486  000C  0003        	ret
 486  000D              _fun_CAL_WEEPROM endp
 486  000D              #line 486 "E:\旧电脑资料\收集的资料\手册\合泰\BH66F5242热电偶资料\SoftWare-BH66F5242_Thermocouple V0.2-lib-20180903\SoftWare-BH66F5242_Thermocouple V0.2-lib\User\Work_mode_polling.c"
 486  000D              #pragma debug scope 1 1
 486  000D              public _fun_CAL_REEPROM
 486  000D              #pragma debug scope 15 1
 498  000D              #line 498 "E:\旧电脑资料\收集的资料\手册\合泰\BH66F5242热电偶资料\SoftWare-BH66F5242_Thermocouple V0.2-lib-20180903\SoftWare-BH66F5242_Thermocouple V0.2-lib\User\Work_mode_polling.c"
 498  0000              _fun_CAL_REEPROM .section 'code'
 498  0000              _fun_CAL_REEPROM proc
 499  0000              #line 499 "E:\旧电脑资料\收集的资料\手册\合泰\BH66F5242热电偶资料\SoftWare-BH66F5242_Thermocouple V0.2-lib-20180903\SoftWare-BH66F5242_Thermocouple V0.2-lib\User\Work_mode_polling.c"
 499  0000  0F00        	mov a,0
 499  0001  2000     E  	call _fun_Read_EEPROM
 499  0002  0080     E  	mov ra,a
 499  0003  0700     E  	mov a,ra
 499  0004  0A55        	sub a,85
 499  0005  390A        	snz z
 499  0006  2800     R  	jmp _L56
 501  0007              #line 501 "E:\旧电脑资料\收集的资料\手册\合泰\BH66F5242热电偶资料\SoftWare-BH66F5242_Thermocouple V0.2-lib-20180903\SoftWare-BH66F5242_Thermocouple V0.2-lib\User\Work_mode_polling.c"
 501  0007  0F01        	mov a,1
 501  0008  2000     E  	call _fun_Read_EEPROM
 501  0009  0080     E  	mov ra,a
 501  000A  0700     E  	mov a,ra
 501  000B  0080     E  	mov _gu16v_correction_K1[0],a
 502  000C              #line 502 "E:\旧电脑资料\收集的资料\手册\合泰\BH66F5242热电偶资料\SoftWare-BH66F5242_Thermocouple V0.2-lib-20180903\SoftWare-BH66F5242_Thermocouple V0.2-lib\User\Work_mode_polling.c"
 502  000C  0F02        	mov a,2
 502  000D  2000     E  	call _fun_Read_EEPROM
 502  000E  0080     E  	mov ra,a
 502  000F  0700     E  	mov a,ra
 502  0010  0080     E  	mov _gu16v_correction_K1[1],a
 503  0011              #line 503 "E:\旧电脑资料\收集的资料\手册\合泰\BH66F5242热电偶资料\SoftWare-BH66F5242_Thermocouple V0.2-lib-20180903\SoftWare-BH66F5242_Thermocouple V0.2-lib\User\Work_mode_polling.c"
 503  0011  0F03        	mov a,3
 503  0012  2000     E  	call _fun_Read_EEPROM
 503  0013  0080     E  	mov ra,a
 503  0014  0700     E  	mov a,ra
 503  0015  0080     E  	mov _gu16v_correction_K2[0],a
 504  0016              #line 504 "E:\旧电脑资料\收集的资料\手册\合泰\BH66F5242热电偶资料\SoftWare-BH66F5242_Thermocouple V0.2-lib-20180903\SoftWare-BH66F5242_Thermocouple V0.2-lib\User\Work_mode_polling.c"
 504  0016  0F04        	mov a,4
 504  0017  2000     E  	call _fun_Read_EEPROM
 504  0018  0080     E  	mov ra,a
 504  0019  0700     E  	mov a,ra
 504  001A  0080     E  	mov _gu16v_correction_K2[1],a
 504  001B  2800     R  	jmp _L55
 504  001C              _L56:
 508  001C              #line 508 "E:\旧电脑资料\收集的资料\手册\合泰\BH66F5242热电偶资料\SoftWare-BH66F5242_Thermocouple V0.2-lib-20180903\SoftWare-BH66F5242_Thermocouple V0.2-lib\User\Work_mode_polling.c"
 508  001C  0F10        	mov a,16
 508  001D  0080     E  	mov _gu16v_correction_K2[0],a
 508  001E  0F27        	mov a,39
 508  001F  0080     E  	mov _gu16v_correction_K2[1],a
 509  0020              #line 509 "E:\旧电脑资料\收集的资料\手册\合泰\BH66F5242热电偶资料\SoftWare-BH66F5242_Thermocouple V0.2-lib-20180903\SoftWare-BH66F5242_Thermocouple V0.2-lib\User\Work_mode_polling.c"
 509  0020  0FC8        	mov a,-56
 509  0021  0080     E  	mov _gu16v_correction_K1[0],a
 509  0022  0F19        	mov a,25
文件：Work_mode_polling.c 编译器版本 HGASM 0202 页次10

 509  0023  0080     E  	mov _gu16v_correction_K1[1],a
 509  0024              _L55:
 509  0024  0003        	ret
 509  0025              _fun_CAL_REEPROM endp
 509  0025              #line 509 "E:\旧电脑资料\收集的资料\手册\合泰\BH66F5242热电偶资料\SoftWare-BH66F5242_Thermocouple V0.2-lib-20180903\SoftWare-BH66F5242_Thermocouple V0.2-lib\User\Work_mode_polling.c"
 509  0025              #pragma debug scope 1 1
 509  0025              public _Sys_Measure
 509  0025              #pragma debug scope 16 1
 282  0025              #line 282 "E:\旧电脑资料\收集的资料\手册\合泰\BH66F5242热电偶资料\SoftWare-BH66F5242_Thermocouple V0.2-lib-20180903\SoftWare-BH66F5242_Thermocouple V0.2-lib\User\Work_mode_polling.c"
 282  0000              _Sys_Measure .section 'code'
 282  0000              _Sys_Measure proc
 284  0000              #line 284 "E:\旧电脑资料\收集的资料\手册\合泰\BH66F5242热电偶资料\SoftWare-BH66F5242_Thermocouple V0.2-lib-20180903\SoftWare-BH66F5242_Thermocouple V0.2-lib\User\Work_mode_polling.c"
 284  0000  1E00     R  	snz _gu8v_public_count[0]
 284  0001  2800     R  	jmp _L60
 284  0002              #line 284 "E:\旧电脑资料\收集的资料\手册\合泰\BH66F5242热电偶资料\SoftWare-BH66F5242_Thermocouple V0.2-lib-20180903\SoftWare-BH66F5242_Thermocouple V0.2-lib\User\Work_mode_polling.c"
 284  0002  1700     R  	sdza _gu8v_public_count[0]
 284  0003  2800     R  	jmp _L58
 284  0004  2800     R  	jmp _L67
 284  0005              _L60:
 288  0005              #line 288 "E:\旧电脑资料\收集的资料\手册\合泰\BH66F5242热电偶资料\SoftWare-BH66F5242_Thermocouple V0.2-lib-20180903\SoftWare-BH66F5242_Thermocouple V0.2-lib\User\Work_mode_polling.c"
 288  0005  2000     E  	call _fun_get_NTC
 288  0006  0080     E  	mov ra,a
 288  0007  1E00     E  	snz ra
 288  0008  2800     R  	jmp _L58
 290  0009              #line 290 "E:\旧电脑资料\收集的资料\手册\合泰\BH66F5242热电偶资料\SoftWare-BH66F5242_Thermocouple V0.2-lib-20180903\SoftWare-BH66F5242_Thermocouple V0.2-lib\User\Work_mode_polling.c"
 290  0009  1480     R  	inc _gu8v_public_count[0]
 290  000A  2800     R  	jmp _L58
 290  000B              _L67:
 301  000B              #line 301 "E:\旧电脑资料\收集的资料\手册\合泰\BH66F5242热电偶资料\SoftWare-BH66F5242_Thermocouple V0.2-lib-20180903\SoftWare-BH66F5242_Thermocouple V0.2-lib\User\Work_mode_polling.c"
 301  000B  2000     E  	call _fun_get_VTP
 301  000C  0080     E  	mov ra,a
 301  000D  1E00     E  	snz ra
 301  000E  2800     R  	jmp _L58
 304  000F              #line 304 "E:\旧电脑资料\收集的资料\手册\合泰\BH66F5242热电偶资料\SoftWare-BH66F5242_Thermocouple V0.2-lib-20180903\SoftWare-BH66F5242_Thermocouple V0.2-lib\User\Work_mode_polling.c"
 304  000F  2000     R  	call _fun_CAL_REEPROM
 305  0010              #line 305 "E:\旧电脑资料\收集的资料\手册\合泰\BH66F5242热电偶资料\SoftWare-BH66F5242_Thermocouple V0.2-lib-20180903\SoftWare-BH66F5242_Thermocouple V0.2-lib\User\Work_mode_polling.c"
 305  0010  2000     E  	call _fun_RNTC_Calculate
 306  0011              #line 306 "E:\旧电脑资料\收集的资料\手册\合泰\BH66F5242热电偶资料\SoftWare-BH66F5242_Thermocouple V0.2-lib-20180903\SoftWare-BH66F5242_Thermocouple V0.2-lib\User\Work_mode_polling.c"
 306  0011  0700     E  	mov a,_gu16v_ntc_res[0]
 306  0012  0080     E  	mov _fun_Vsen_Calculate_2[0],a
 306  0013  0700     E  	mov a,_gu16v_ntc_res[1]
 306  0014  0080     E  	mov _fun_Vsen_Calculate_2[1],a
 306  0015  2000     E  	call _fun_Vsen_Calculate
 307  0016              #line 307 "E:\旧电脑资料\收集的资料\手册\合泰\BH66F5242热电偶资料\SoftWare-BH66F5242_Thermocouple V0.2-lib-20180903\SoftWare-BH66F5242_Thermocouple V0.2-lib\User\Work_mode_polling.c"
 307  0016  2000     E  	call _fun_Tobj_Calculate
 308  0017              #line 308 "E:\旧电脑资料\收集的资料\手册\合泰\BH66F5242热电偶资料\SoftWare-BH66F5242_Thermocouple V0.2-lib-20180903\SoftWare-BH66F5242_Thermocouple V0.2-lib\User\Work_mode_polling.c"
 308  0017  0700     E  	mov a,_gu16v_current_temp[0]
 308  0018  0080     E  	mov _gu16v_tp_temp[0],a
 308  0019  0700     E  	mov a,_gu16v_current_temp[1]
 308  001A  0080     E  	mov _gu16v_tp_temp[1],a
 309  001B              #line 309 "E:\旧电脑资料\收集的资料\手册\合泰\BH66F5242热电偶资料\SoftWare-BH66F5242_Thermocouple V0.2-lib-20180903\SoftWare-BH66F5242_Thermocouple V0.2-lib\User\Work_mode_polling.c"
 309  001B  3000     R  	set _gu8v_sys_flag[0].3
 310  001C              #line 310 "E:\旧电脑资料\收集的资料\手册\合泰\BH66F5242热电偶资料\SoftWare-BH66F5242_Thermocouple V0.2-lib-20180903\SoftWare-BH66F5242_Thermocouple V0.2-lib\User\Work_mode_polling.c"
 310  001C  1F00     R  	clr _gu8v_public_count[0]
 311  001D              #line 311 "E:\旧电脑资料\收集的资料\手册\合泰\BH66F5242热电偶资料\SoftWare-BH66F5242_Thermocouple V0.2-lib-20180903\SoftWare-BH66F5242_Thermocouple V0.2-lib\User\Work_mode_polling.c"
 311  001D  0F00        	mov a,0
 311  001E  2000     R  	call _Change_Mode
 311  001F              _L58:
 311  001F  0003        	ret
 311  0020              _Sys_Measure endp
文件：Work_mode_polling.c 编译器版本 HGASM 0202 页次11

 311  0020              #line 311 "E:\旧电脑资料\收集的资料\手册\合泰\BH66F5242热电偶资料\SoftWare-BH66F5242_Thermocouple V0.2-lib-20180903\SoftWare-BH66F5242_Thermocouple V0.2-lib\User\Work_mode_polling.c"
 311  0020              #pragma debug scope 1 1
 311  0020              public _fun_cal_pressure
 311  0020              #pragma debug scope 17 1
 522  0020              #line 522 "E:\旧电脑资料\收集的资料\手册\合泰\BH66F5242热电偶资料\SoftWare-BH66F5242_Thermocouple V0.2-lib-20180903\SoftWare-BH66F5242_Thermocouple V0.2-lib\User\Work_mode_polling.c"
 522  0000              _fun_cal_pressure .section 'code'
 522  0000              _fun_cal_pressure proc
 522  0000              public _fun_cal_pressure_2
 522  0000  0002[           local _fun_cal_pressure_2 db 2 dup(?)	; 2,0
            00
            ]
 522  0002              #pragma debug variable 12 17 _fun_cal_pressure_2+0 "lu16v_pressure"
 522  0000  0003        	ret
 522  0001              _fun_cal_pressure endp
 522  0001              #line 522 "E:\旧电脑资料\收集的资料\手册\合泰\BH66F5242热电偶资料\SoftWare-BH66F5242_Thermocouple V0.2-lib-20180903\SoftWare-BH66F5242_Thermocouple V0.2-lib\User\Work_mode_polling.c"
 522  0001              #pragma debug scope 1 1
 522  0001              public _Sys_Comparison
 522  0001              #pragma debug scope 18 1
 529  0001              #line 529 "E:\旧电脑资料\收集的资料\手册\合泰\BH66F5242热电偶资料\SoftWare-BH66F5242_Thermocouple V0.2-lib-20180903\SoftWare-BH66F5242_Thermocouple V0.2-lib\User\Work_mode_polling.c"
 529  0000              _Sys_Comparison .section 'code'
 529  0000              _Sys_Comparison proc
 529  0000  0003        	ret
 529  0001              _Sys_Comparison endp
 529  0001              #line 529 "E:\旧电脑资料\收集的资料\手册\合泰\BH66F5242热电偶资料\SoftWare-BH66F5242_Thermocouple V0.2-lib-20180903\SoftWare-BH66F5242_Thermocouple V0.2-lib\User\Work_mode_polling.c"
 529  0001              #pragma debug scope 1 1
 529  0001              public _goto_halt
 529  0001              #pragma debug scope 19 1
 534  0001              #line 534 "E:\旧电脑资料\收集的资料\手册\合泰\BH66F5242热电偶资料\SoftWare-BH66F5242_Thermocouple V0.2-lib-20180903\SoftWare-BH66F5242_Thermocouple V0.2-lib\User\Work_mode_polling.c"
 534  0000              _goto_halt .section 'code'
 534  0000              _goto_halt proc
 535  0000              #line 535 "E:\旧电脑资料\收集的资料\手册\合泰\BH66F5242热电偶资料\SoftWare-BH66F5242_Thermocouple V0.2-lib-20180903\SoftWare-BH66F5242_Thermocouple V0.2-lib\User\Work_mode_polling.c"
 535  0000  0F14        	mov a,20
 535  0001  0080     E  	mov _gu8v_halt_time[0],a
 536  0002              #line 536 "E:\旧电脑资料\收集的资料\手册\合泰\BH66F5242热电偶资料\SoftWare-BH66F5242_Thermocouple V0.2-lib-20180903\SoftWare-BH66F5242_Thermocouple V0.2-lib\User\Work_mode_polling.c"
 536  0002  1F00     R  	clr _gu8v_work_mode[0]
 536  0003  0003        	ret
 536  0004              _goto_halt endp
 536  0004              #line 536 "E:\旧电脑资料\收集的资料\手册\合泰\BH66F5242热电偶资料\SoftWare-BH66F5242_Thermocouple V0.2-lib-20180903\SoftWare-BH66F5242_Thermocouple V0.2-lib\User\Work_mode_polling.c"
 536  0004              #pragma debug scope 1 1
 536  0004              public _goto_low_sleep
 536  0004              #pragma debug scope 20 1
 541  0004              #line 541 "E:\旧电脑资料\收集的资料\手册\合泰\BH66F5242热电偶资料\SoftWare-BH66F5242_Thermocouple V0.2-lib-20180903\SoftWare-BH66F5242_Thermocouple V0.2-lib\User\Work_mode_polling.c"
 541  0000              _goto_low_sleep .section 'code'
 541  0000              _goto_low_sleep proc
 542  0000              #line 542 "E:\旧电脑资料\收集的资料\手册\合泰\BH66F5242热电偶资料\SoftWare-BH66F5242_Thermocouple V0.2-lib-20180903\SoftWare-BH66F5242_Thermocouple V0.2-lib\User\Work_mode_polling.c"
 542  0000  0F14        	mov a,20
 542  0001  0080     E  	mov _gu8v_halt_time[0],a
 543  0002              #line 543 "E:\旧电脑资料\收集的资料\手册\合泰\BH66F5242热电偶资料\SoftWare-BH66F5242_Thermocouple V0.2-lib-20180903\SoftWare-BH66F5242_Thermocouple V0.2-lib\User\Work_mode_polling.c"
 543  0002  1F00     R  	clr _gu8v_work_mode[0]
 544  0003              #line 544 "E:\旧电脑资料\收集的资料\手册\合泰\BH66F5242热电偶资料\SoftWare-BH66F5242_Thermocouple V0.2-lib-20180903\SoftWare-BH66F5242_Thermocouple V0.2-lib\User\Work_mode_polling.c"
 544  0003  3400     R  	clr _gu8v_sys_flag[0].0
 544  0004  0003        	ret
 544  0005              _goto_low_sleep endp
 544  0005              #line 544 "E:\旧电脑资料\收集的资料\手册\合泰\BH66F5242热电偶资料\SoftWare-BH66F5242_Thermocouple V0.2-lib-20180903\SoftWare-BH66F5242_Thermocouple V0.2-lib\User\Work_mode_polling.c"
 544  0005              #pragma debug scope 1 1
 544  0005              public _goto_deep_sleep
 544  0005              #pragma debug scope 21 1
 548  0005              #line 548 "E:\旧电脑资料\收集的资料\手册\合泰\BH66F5242热电偶资料\SoftWare-BH66F5242_Thermocouple V0.2-lib-20180903\SoftWare-BH66F5242_Thermocouple V0.2-lib\User\Work_mode_polling.c"
 548  0000              _goto_deep_sleep .section 'code'
 548  0000              _goto_deep_sleep proc
文件：Work_mode_polling.c 编译器版本 HGASM 0202 页次12

 549  0000              #line 549 "E:\旧电脑资料\收集的资料\手册\合泰\BH66F5242热电偶资料\SoftWare-BH66F5242_Thermocouple V0.2-lib-20180903\SoftWare-BH66F5242_Thermocouple V0.2-lib\User\Work_mode_polling.c"
 549  0000  0F14        	mov a,20
 549  0001  0080     E  	mov _gu8v_halt_time[0],a
 550  0002              #line 550 "E:\旧电脑资料\收集的资料\手册\合泰\BH66F5242热电偶资料\SoftWare-BH66F5242_Thermocouple V0.2-lib-20180903\SoftWare-BH66F5242_Thermocouple V0.2-lib\User\Work_mode_polling.c"
 550  0002  1F00     R  	clr _gu8v_work_mode[0]
 551  0003              #line 551 "E:\旧电脑资料\收集的资料\手册\合泰\BH66F5242热电偶资料\SoftWare-BH66F5242_Thermocouple V0.2-lib-20180903\SoftWare-BH66F5242_Thermocouple V0.2-lib\User\Work_mode_polling.c"
 551  0003  3000     R  	set _gu8v_sys_flag[0].0
 551  0004  0003        	ret
 551  0005              _goto_deep_sleep endp
 551  0005              #line 551 "E:\旧电脑资料\收集的资料\手册\合泰\BH66F5242热电偶资料\SoftWare-BH66F5242_Thermocouple V0.2-lib-20180903\SoftWare-BH66F5242_Thermocouple V0.2-lib\User\Work_mode_polling.c"
 551  0005              #pragma debug scope 1 1
 551  0005              public _Sys_lower_power
 551  0005              #pragma debug scope 22 1
 564  0005              #line 564 "E:\旧电脑资料\收集的资料\手册\合泰\BH66F5242热电偶资料\SoftWare-BH66F5242_Thermocouple V0.2-lib-20180903\SoftWare-BH66F5242_Thermocouple V0.2-lib\User\Work_mode_polling.c"
 564  0000              _Sys_lower_power .section 'code'
 564  0000              _Sys_lower_power proc
 564  0000  0003        	ret
 564  0001              _Sys_lower_power endp
 564  0001              #line 564 "E:\旧电脑资料\收集的资料\手册\合泰\BH66F5242热电偶资料\SoftWare-BH66F5242_Thermocouple V0.2-lib-20180903\SoftWare-BH66F5242_Thermocouple V0.2-lib\User\Work_mode_polling.c"
 564  0001              #pragma debug scope 1 1
 564  0001              public _get_current_temp
 564  0001              #pragma debug scope 23 1
 610  0001              #line 610 "E:\旧电脑资料\收集的资料\手册\合泰\BH66F5242热电偶资料\SoftWare-BH66F5242_Thermocouple V0.2-lib-20180903\SoftWare-BH66F5242_Thermocouple V0.2-lib\User\Work_mode_polling.c"
 610  0000              _get_current_temp .section 'code'
 610  0000              _get_current_temp proc
 659  0000              #line 659 "E:\旧电脑资料\收集的资料\手册\合泰\BH66F5242热电偶资料\SoftWare-BH66F5242_Thermocouple V0.2-lib-20180903\SoftWare-BH66F5242_Thermocouple V0.2-lib\User\Work_mode_polling.c"
 659  0000  0F00        	mov a,0
 659  0001  0003        	ret
 659  0002              _get_current_temp endp
 659  0002              #line 659 "E:\旧电脑资料\收集的资料\手册\合泰\BH66F5242热电偶资料\SoftWare-BH66F5242_Thermocouple V0.2-lib-20180903\SoftWare-BH66F5242_Thermocouple V0.2-lib\User\Work_mode_polling.c"
 659  0002              #pragma debug scope 1 1
 555  0002              #line 555 "E:\旧电脑资料\收集的资料\手册\合泰\BH66F5242热电偶资料\SoftWare-BH66F5242_Thermocouple V0.2-lib-20180903\SoftWare-BH66F5242_Thermocouple V0.2-lib\User\Work_mode_polling.c"
 555  0002              public _gu8v_lower_power_count
 555  0000              @HCCINIT0_gu8v_lower_power_count .section 'data'
 555  0000              _gu8v_lower_power_count	db 0
 555  0001              #pragma debug variable 8 1 _gu8v_lower_power_count "gu8v_lower_power_count"
 555  0001              
 555  0000              @HCCINIT .section 'data'
  86  0000              #line 86 "E:\旧电脑资料\收集的资料\手册\合泰\BH66F5242热电偶资料\SoftWare-BH66F5242_Thermocouple V0.2-lib-20180903\SoftWare-BH66F5242_Thermocouple V0.2-lib\User\Work_mode_polling.c"
  86  0000              public _gu8v_tb1_count
  86  0000              @HCCINIT0_gu8v_tb1_count .section 'data'
  86  0000              _gu8v_tb1_count	db 0
  86  0001              #pragma debug variable 8 1 _gu8v_tb1_count "gu8v_tb1_count"
  86  0001              
  86  0000              @HCCINIT .section 'data'
  27  0000              #line 27 "E:\旧电脑资料\收集的资料\手册\合泰\BH66F5242热电偶资料\SoftWare-BH66F5242_Thermocouple V0.2-lib-20180903\SoftWare-BH66F5242_Thermocouple V0.2-lib\User\Work_mode_polling.c"
  27  0000              public _gu8v_sys_flag
  27  0000              @HCCINIT0_gu8v_sys_flag .section 'data'
  27  0000              _gu8v_sys_flag	db 0
  27  0001              #pragma debug struct_end
  27  0001              #pragma debug struct_end
  27  0001              #pragma debug union_end
  27  0001              #pragma debug union_end
  27  0001              #pragma debug variable 43 1 _gu8v_sys_flag "gu8v_sys_flag"
  27  0001              
  27  0000              @HCCINIT .section 'data'
  26  0000              #line 26 "E:\旧电脑资料\收集的资料\手册\合泰\BH66F5242热电偶资料\SoftWare-BH66F5242_Thermocouple V0.2-lib-20180903\SoftWare-BH66F5242_Thermocouple V0.2-lib\User\Work_mode_polling.c"
  26  0000              public _gu8v_time_flag
  26  0000              @HCCINIT0_gu8v_time_flag .section 'data'
  26  0000              _gu8v_time_flag	db 0
文件：Work_mode_polling.c 编译器版本 HGASM 0202 页次13

  26  0001              #pragma debug variable 43 1 _gu8v_time_flag "gu8v_time_flag"
  26  0001              
  26  0000              @HCCINIT .section 'data'
  25  0000              #line 25 "E:\旧电脑资料\收集的资料\手册\合泰\BH66F5242热电偶资料\SoftWare-BH66F5242_Thermocouple V0.2-lib-20180903\SoftWare-BH66F5242_Thermocouple V0.2-lib\User\Work_mode_polling.c"
  25  0000              public _gu8v_correction_mode
  25  0000              @HCCINIT0_gu8v_correction_mode .section 'data'
  25  0000              _gu8v_correction_mode	db 0
  25  0001              #pragma debug variable 8 1 _gu8v_correction_mode "gu8v_correction_mode"
  25  0001              
  25  0000              @HCCINIT .section 'data'
  24  0000              #line 24 "E:\旧电脑资料\收集的资料\手册\合泰\BH66F5242热电偶资料\SoftWare-BH66F5242_Thermocouple V0.2-lib-20180903\SoftWare-BH66F5242_Thermocouple V0.2-lib\User\Work_mode_polling.c"
  24  0000              public _gu8v_err_code
  24  0000              @HCCINIT0_gu8v_err_code .section 'data'
  24  0000              _gu8v_err_code	db 0
  24  0001              #pragma debug variable 8 1 _gu8v_err_code "gu8v_err_code"
  24  0001              
  24  0000              @HCCINIT .section 'data'
  23  0000              #line 23 "E:\旧电脑资料\收集的资料\手册\合泰\BH66F5242热电偶资料\SoftWare-BH66F5242_Thermocouple V0.2-lib-20180903\SoftWare-BH66F5242_Thermocouple V0.2-lib\User\Work_mode_polling.c"
  23  0000              public _gu8v_ntc_sample_mode
  23  0000              @HCCINIT0_gu8v_ntc_sample_mode .section 'data'
  23  0000              _gu8v_ntc_sample_mode	db 0
  23  0001              #pragma debug variable 8 1 _gu8v_ntc_sample_mode "gu8v_ntc_sample_mode"
  23  0001              
  23  0000              @HCCINIT .section 'data'
  22  0000              #line 22 "E:\旧电脑资料\收集的资料\手册\合泰\BH66F5242热电偶资料\SoftWare-BH66F5242_Thermocouple V0.2-lib-20180903\SoftWare-BH66F5242_Thermocouple V0.2-lib\User\Work_mode_polling.c"
  22  0000              public _gu8v_public_count1
  22  0000              @HCCINIT0_gu8v_public_count1 .section 'data'
  22  0000              _gu8v_public_count1	db 0
  22  0001              #pragma debug variable 8 1 _gu8v_public_count1 "gu8v_public_count1"
  22  0001              
  22  0000              @HCCINIT .section 'data'
  21  0000              #line 21 "E:\旧电脑资料\收集的资料\手册\合泰\BH66F5242热电偶资料\SoftWare-BH66F5242_Thermocouple V0.2-lib-20180903\SoftWare-BH66F5242_Thermocouple V0.2-lib\User\Work_mode_polling.c"
  21  0000              public _gu8v_public_count
  21  0000              @HCCINIT0_gu8v_public_count .section 'data'
  21  0000              _gu8v_public_count	db 0
  21  0001              #pragma debug variable 8 1 _gu8v_public_count "gu8v_public_count"
  21  0001              
  21  0000              @HCCINIT .section 'data'
  20  0000              #line 20 "E:\旧电脑资料\收集的资料\手册\合泰\BH66F5242热电偶资料\SoftWare-BH66F5242_Thermocouple V0.2-lib-20180903\SoftWare-BH66F5242_Thermocouple V0.2-lib\User\Work_mode_polling.c"
  20  0000              public _gu8v_public_time
  20  0000              @HCCINIT0_gu8v_public_time .section 'data'
  20  0000              _gu8v_public_time	db 0
  20  0001              #pragma debug variable 8 1 _gu8v_public_time "gu8v_public_time"
  20  0001              
  20  0000              @HCCINIT .section 'data'
  19  0000              #line 19 "E:\旧电脑资料\收集的资料\手册\合泰\BH66F5242热电偶资料\SoftWare-BH66F5242_Thermocouple V0.2-lib-20180903\SoftWare-BH66F5242_Thermocouple V0.2-lib\User\Work_mode_polling.c"
  19  0000              public _gu8v_sys_time
  19  0000              @HCCINIT0_gu8v_sys_time .section 'data'
  19  0000              _gu8v_sys_time	db 0
  19  0001              #pragma debug variable 8 1 _gu8v_sys_time "gu8v_sys_time"
  19  0001              
  19  0000              @HCCINIT .section 'data'
  18  0000              #line 18 "E:\旧电脑资料\收集的资料\手册\合泰\BH66F5242热电偶资料\SoftWare-BH66F5242_Thermocouple V0.2-lib-20180903\SoftWare-BH66F5242_Thermocouple V0.2-lib\User\Work_mode_polling.c"
  18  0000              public _gu8v_work_mode
  18  0000              @HCCINIT0_gu8v_work_mode .section 'data'
  18  0000              _gu8v_work_mode	db 0
  18  0001              #pragma debug variable 8 1 _gu8v_work_mode "gu8v_work_mode"
  18  0001              
  18  0000              @HCCINIT .section 'data'
  18  0000              
文件：Work_mode_polling.c 编译器版本 HGASM 0202 页次14

  18  0000              ; output external variables
  18  0000              extern _gu16v_tp_temp:byte
  18  0000              extern _gu16v_current_temp:byte
  18  0000              extern _gu16v_vtp_buff2:byte
  18  0000              extern _gu16v_vtp_buff1:byte
  18  0000              extern _gu16v_vtp:byte
  18  0000              extern _array_uart_rxbuff:byte
  18  0000              extern _gu16v_cal_temph:byte
  18  0000              extern _gu16v_cal_templ:byte
  18  0000              extern _gu16v_correction_K2:byte
  18  0000              extern _gu16v_correction_K1:byte
  18  0000              extern _gu16v_ntc_res:byte
  18  0000              extern _gu8v_halt_time:byte
  18  0000              extern _gu8v_obj_temp_mode:byte
  18  0000              extern _gu8v_NTCMode:byte
  18  0000              extern _gu8v_Key_status:byte
  18  0000              extern _fun_RNTC_Calculate:near
  18  0000              extern _fun_Vsen_Calculate_2:byte
  18  0000              extern _fun_Vsen_Calculate:near
  18  0000              extern _fun_CORRECTION_Calculate:near
  18  0000              extern _fun_Write_EEPROM_2:byte
  18  0000              extern _fun_Write_EEPROM:near
  18  0000              extern _fun_get_NTC:near
  18  0000              extern _fun_get_VTP:near
  18  0000              extern _fun_Read_EEPROM:near
  18  0000              extern _fun_Tobj_Calculate:near
  18  0000              
  18  0000              ; 
  18  0000              ; Generated by holtek-gcc v3.19, Wed Apr 10 15:18:43 2019
  18  0000              ; Rebuild 115
  18  0000              ; end of file


        0 Errors, 0