文件：Main.c       编译器版本 HGASM 0202 页次1


   1  0000              ; Generated by holtek-gcc v3.19, Mon Mar 25 15:45:16 2019
   2  0000              ; 
   3  0000              ; Configuration:
   4  0000              ;       with long instruction
   5  0000              ;       Single ROM, Multi-RAM
   6  0000              ;       bits_per_rom_unit:16
   7  0000              ;       with mp1
   8  0000              ;       with tbhp, address(0x9)
   9  0000              ;          Use tabrd-const
  10  0000              ;       
  11  0000              ; SFR address of long-instruction arch:
  12  0000              ;    mp0 = -1,1,0
  13  0000              ;    mp1 = 4,3,2
  14  0000              ;    mp2 = 14,13,12
  15  0000              ;    tbp = 9,7,8
  16  0000              ;    acc = 5
  17  0000              ;    pcl = 6
  18  0000              ;    status = 10
  19  0000              ;    bp = 11
  20  0000              ;    intc = 32
  21  0000              ;       
  22  0000              ;       
  23  0000              ; use 'tabrdc' instead of 'tabrd'
  24  0000              ;       
  25  0000              
  26  0000              #pragma translator "holtek-gcc 4.6.4" "3.19" "build 20130711"
  27  0000              ; Rebuild 115
  28  0000              
  29  0000              ir equ [2]
  30  0000              mp equ [3]
  31  0000              sbp equ [4]
  32  0000              acc equ [5]
  33  0000              bp equ [11]
  34  0000              tblp equ [7]
  35  0000              tbhp equ [9]
  36  0000              status equ [10]
  37  0000              c equ [10].0
  38  0000              ac equ [10].1
  39  0000              z equ [10].2
  40  0000              ov equ [10].3
  41  0000              cz equ [10].6
  42  0000              sc equ [10].7
  43  0000              intc equ [32]
  44  0000              mduwr0 equ [59h]
  45  0000              mduwr1 equ [5ah]
  46  0000              mduwr2 equ [5bh]
  47  0000              mduwr3 equ [5ch]
  48  0000              mduwr4 equ [5dh]
  49  0000              mduwr5 equ [5eh]
  50  0000              mduwrctrl equ [5fh]
  51  0000              
  52  0000              extern ra:byte
  53  0000              extern rb:byte
  54  0000              extern rc:byte
  55  0000              extern rd:byte
  56  0000              extern re:byte
  57  0000              extern rf:byte
  58  0000              extern rg:byte
  59  0000              extern rh:byte
文件：Main.ASM     编译器版本 HGASM 0202 页次2

  60  0000              extern _Crom2Prom:near
  61  0000              extern _Crom2PromNext:near
  62  0000              
  63  0000              RAMBANK 0 @BITDATASEC, @BITDATASEC1
  64  0000              @HCCINIT	.section 'data'
  65  0000              @HCCINIT0	.section 'data'
  66  0000              @BITDATASEC	 .section 'data'
  67  0000              @BITDATASEC1	 .section 'data'
  68  0000              
  69  0000              #pragma debug scope 1 1
  70  0000              	extern __DELAY3:near
  71  0000              	extern __DELAYX3:near
  72  0000              	extern __DELAYX6:near
  73  0000              	extern __DELAYY5:near
  74  0000              	extern __DELAYY3:near
  75  0000              	extern _builtin_holtek_delay_2:byte
  76  0000              ___status equ [10]
  77  0000              ___dsdacc equ [113]
  78  0000              ___dsopc equ [114]
  79  0000              ___mfi1 equ [28]
  80  0000              ___pgac0 equ [105]
  81  0000              public _main
  82  0000              #pragma debug scope 2 1

  21  0000              #line 21 "E:\旧电脑资料\收集的资料\手册\合泰\SoftWare-BH66F5250_DEMOCODE\User\Main.c"
  21  0000              IFDEF WITH_DEFAULT_STARTUP
  21  0000              extern _main_initial0:near
  21  0000              extern _main_startup:near
  21  0000              ENDIF
  21  0000              
  21  0000              ROMBANK 0 @start
  21  0000              @start .section com_l 'code'
  21  0000              _main_startup1:
  21  0000              @start .section com_e 'code'
  21  0000  2800     R  	jmp _main
  21  0001              
  21  0000              _main .section 'code'
  21  0000              _main proc
  21  0000  00              local _main_2 db 1 dup(?)
  25  0001              #line 25 "E:\旧电脑资料\收集的资料\手册\合泰\SoftWare-BH66F5250_DEMOCODE\User\Main.c"
  25  0000  3A8A        	snz [10].5
  25  0001  2800     R  	jmp _L2
  25  0002              #line 25 "E:\旧电脑资料\收集的资料\手册\合泰\SoftWare-BH66F5250_DEMOCODE\User\Main.c"
  25  0002  3E0A        	sz [10].4
  25  0003  2800     R  	jmp _L3
  25  0004              _L2:
  25  0004              #pragma debug scope 3 2
  25  0004              ;begin block, line: 25.-1
  28  0004              #line 28 "E:\旧电脑资料\收集的资料\手册\合泰\SoftWare-BH66F5250_DEMOCODE\User\Main.c"
  28  0004  2000     E  	call _fun_PowerOnInit
  29  0005              #line 29 "E:\旧电脑资料\收集的资料\手册\合泰\SoftWare-BH66F5250_DEMOCODE\User\Main.c"
  29  0005  2000     E  	call _fun_ADC_INIT
  30  0006              #line 30 "E:\旧电脑资料\收集的资料\手册\合泰\SoftWare-BH66F5250_DEMOCODE\User\Main.c"
  30  0006  2000     E  	call _fun_ADC_Enable
  31  0007              #line 31 "E:\旧电脑资料\收集的资料\手册\合泰\SoftWare-BH66F5250_DEMOCODE\User\Main.c"
  31  0007  33F1        	set [113].7
  32  0008              #line 32 "E:\旧电脑资料\收集的资料\手册\合泰\SoftWare-BH66F5250_DEMOCODE\User\Main.c"
  32  0008  3771        	clr [113].6
  33  0009              #line 33 "E:\旧电脑资料\收集的资料\手册\合泰\SoftWare-BH66F5250_DEMOCODE\User\Main.c"
  33  0009  0F0A        	mov a,10
文件：Main.c       编译器版本 HGASM 0202 页次3

  33  000A  00F2        	mov [114],a
  34  000B              #line 34 "E:\旧电脑资料\收集的资料\手册\合泰\SoftWare-BH66F5250_DEMOCODE\User\Main.c"
  34  000B  2000     E  	call _Uart_Init
  34  000C              #pragma debug scope 2 1
  26  000C              #line 26 "E:\旧电脑资料\收集的资料\手册\合泰\SoftWare-BH66F5250_DEMOCODE\User\Main.c"
  26  000C  2800     R  	jmp _L4
  26  000D              _L3:
  39  000D              #line 39 "E:\旧电脑资料\收集的资料\手册\合泰\SoftWare-BH66F5250_DEMOCODE\User\Main.c"
  39  000D  2000     E  	call _fun_ResetInit
  39  000E              _L4:
  47  000E              #line 47 "E:\旧电脑资料\收集的资料\手册\合泰\SoftWare-BH66F5250_DEMOCODE\User\Main.c"
  47  000E              ;# 47 "E:\旧电脑资料\收集的资料\手册\合泰\SoftWare-BH66F5250_DEMOCODE\User\Main.c" 1
  47  000E  0001        	clr wdt
  49  000F              #line 49 "E:\旧电脑资料\收集的资料\手册\合泰\SoftWare-BH66F5250_DEMOCODE\User\Main.c"
  49  000F  2000     E  	call _fun_ADC_Polling
  51  0010              #line 51 "E:\旧电脑资料\收集的资料\手册\合泰\SoftWare-BH66F5250_DEMOCODE\User\Main.c"
  51  0010  0F13        	mov a,19
  51  0011  0200     R  	sub a,_gu8v_halt_time[0]
  51  0012  380A        	snz c
  51  0013  2800     R  	jmp _L4
  53  0014              #line 53 "E:\旧电脑资料\收集的资料\手册\合泰\SoftWare-BH66F5250_DEMOCODE\User\Main.c"
  53  0014  3B9C        	snz [28].7
  53  0015  2800     R  	jmp _L4
  56  0016              #line 56 "E:\旧电脑资料\收集的资料\手册\合泰\SoftWare-BH66F5250_DEMOCODE\User\Main.c"
  56  0016  379C        	clr [28].7
  58  0017              #line 58 "E:\旧电脑资料\收集的资料\手册\合泰\SoftWare-BH66F5250_DEMOCODE\User\Main.c"
  58  0017  2000     E  	call _fun_Key_Scan
  61  0018              #line 61 "E:\旧电脑资料\收集的资料\手册\合泰\SoftWare-BH66F5250_DEMOCODE\User\Main.c"
  61  0018  3800     E  	snz _gu8v_KeyUp[0].0
  61  0019  2800     R  	jmp _L10
  63  001A              #line 63 "E:\旧电脑资料\收集的资料\手册\合泰\SoftWare-BH66F5250_DEMOCODE\User\Main.c"
  63  001A  3400     E  	clr _gu8v_KeyUp[0].0
  64  001B              #line 64 "E:\旧电脑资料\收集的资料\手册\合泰\SoftWare-BH66F5250_DEMOCODE\User\Main.c"
  64  001B              ;# 64 "E:\旧电脑资料\收集的资料\手册\合泰\SoftWare-BH66F5250_DEMOCODE\User\Main.c" 1
  64  001B  0000        	nop
  65  001C              #line 65 "E:\旧电脑资料\收集的资料\手册\合泰\SoftWare-BH66F5250_DEMOCODE\User\Main.c"
  65  001C  1400     R  	inca _gu8v_PGA[0]
  65  001D  0080     E  	mov ra,a
  66  001E              #line 66 "E:\旧电脑资料\收集的资料\手册\合泰\SoftWare-BH66F5250_DEMOCODE\User\Main.c"
  66  001E  0F07        	mov a,7
  66  001F  0200     E  	sub a,ra
  66  0020  380A        	snz c
  66  0021  2800     R  	jmp _L11
  65  0022              #line 65 "E:\旧电脑资料\收集的资料\手册\合泰\SoftWare-BH66F5250_DEMOCODE\User\Main.c"
  65  0022  0700     E  	mov a,ra
  65  0023  0080     R  	mov _gu8v_PGA[0],a
  65  0024  2800     R  	jmp _L12
  65  0025              _L11:
  68  0025              #line 68 "E:\旧电脑资料\收集的资料\手册\合泰\SoftWare-BH66F5250_DEMOCODE\User\Main.c"
  68  0025  1F00     R  	clr _gu8v_PGA[0]
  68  0026              _L12:
  71  0026              #line 71 "E:\旧电脑资料\收集的资料\手册\合泰\SoftWare-BH66F5250_DEMOCODE\User\Main.c"
  71  0026  0700     R  	mov a,_gu8v_PGA[0]
  71  0027  0080     R  	mov _main_2[0],a
  71  0028  1080     R  	sz _main_2[0]
  71  0029  2800     R  	jmp _L13
  73  002A              #line 73 "E:\旧电脑资料\收集的资料\手册\合泰\SoftWare-BH66F5250_DEMOCODE\User\Main.c"
  73  002A  3569        	clr [105].2
  73  002B  2800     R  	jmp _L34
  73  002C              _L13:
文件：Main.c       编译器版本 HGASM 0202 页次4

  76  002C              #line 76 "E:\旧电脑资料\收集的资料\手册\合泰\SoftWare-BH66F5250_DEMOCODE\User\Main.c"
  76  002C  1700     R  	sdza _main_2[0]
  76  002D  2800     R  	jmp _L14
  78  002E              #line 78 "E:\旧电脑资料\收集的资料\手册\合泰\SoftWare-BH66F5250_DEMOCODE\User\Main.c"
  78  002E  3569        	clr [105].2
  78  002F  2800     R  	jmp _L35
  78  0030              _L14:
  80  0030              #line 80 "E:\旧电脑资料\收集的资料\手册\合泰\SoftWare-BH66F5250_DEMOCODE\User\Main.c"
  80  0030  0700     R  	mov a,_main_2[0]
  80  0031  0A02        	sub a,2
  80  0032  390A        	snz z
  80  0033  2800     R  	jmp _L15
  82  0034              #line 82 "E:\旧电脑资料\收集的资料\手册\合泰\SoftWare-BH66F5250_DEMOCODE\User\Main.c"
  82  0034  3569        	clr [105].2
  82  0035              _L31:
  82  0035  30E9        	set [105].1
  82  0036              _L30:
  82  0036  3469        	clr [105].0
  82  0037  2800     R  	jmp _L10
  82  0038              _L15:
  84  0038              #line 84 "E:\旧电脑资料\收集的资料\手册\合泰\SoftWare-BH66F5250_DEMOCODE\User\Main.c"
  84  0038  0700     R  	mov a,_main_2[0]
  84  0039  0A03        	sub a,3
  84  003A  390A        	snz z
  84  003B  2800     R  	jmp _L16
  86  003C              #line 86 "E:\旧电脑资料\收集的资料\手册\合泰\SoftWare-BH66F5250_DEMOCODE\User\Main.c"
  86  003C  3569        	clr [105].2
  86  003D  2800     R  	jmp _L33
  86  003E              _L16:
  88  003E              #line 88 "E:\旧电脑资料\收集的资料\手册\合泰\SoftWare-BH66F5250_DEMOCODE\User\Main.c"
  88  003E  0700     R  	mov a,_main_2[0]
  88  003F  0A04        	sub a,4
  88  0040  390A        	snz z
  88  0041  2800     R  	jmp _L17
  90  0042              #line 90 "E:\旧电脑资料\收集的资料\手册\合泰\SoftWare-BH66F5250_DEMOCODE\User\Main.c"
  90  0042  3169        	set [105].2
  90  0043              _L34:
  90  0043  34E9        	clr [105].1
  90  0044  2800     R  	jmp _L30
  90  0045              _L17:
  92  0045              #line 92 "E:\旧电脑资料\收集的资料\手册\合泰\SoftWare-BH66F5250_DEMOCODE\User\Main.c"
  92  0045  0700     R  	mov a,_main_2[0]
  92  0046  0A05        	sub a,5
  92  0047  390A        	snz z
  92  0048  2800     R  	jmp _L18
  94  0049              #line 94 "E:\旧电脑资料\收集的资料\手册\合泰\SoftWare-BH66F5250_DEMOCODE\User\Main.c"
  94  0049  3169        	set [105].2
  94  004A              _L35:
  94  004A  34E9        	clr [105].1
  94  004B  2800     R  	jmp _L32
  94  004C              _L18:
  96  004C              #line 96 "E:\旧电脑资料\收集的资料\手册\合泰\SoftWare-BH66F5250_DEMOCODE\User\Main.c"
  96  004C  0700     R  	mov a,_main_2[0]
  96  004D  0A06        	sub a,6
  96  004E  390A        	snz z
  96  004F  2800     R  	jmp _L19
  98  0050              #line 98 "E:\旧电脑资料\收集的资料\手册\合泰\SoftWare-BH66F5250_DEMOCODE\User\Main.c"
  98  0050  3169        	set [105].2
  98  0051  2800     R  	jmp _L31
  98  0052              _L19:
文件：Main.c       编译器版本 HGASM 0202 页次5

 100  0052              #line 100 "E:\旧电脑资料\收集的资料\手册\合泰\SoftWare-BH66F5250_DEMOCODE\User\Main.c"
 100  0052  0700     R  	mov a,_main_2[0]
 100  0053  0A07        	sub a,7
 100  0054  390A        	snz z
 100  0055  2800     R  	jmp _L10
 102  0056              #line 102 "E:\旧电脑资料\收集的资料\手册\合泰\SoftWare-BH66F5250_DEMOCODE\User\Main.c"
 102  0056  3169        	set [105].2
 102  0057              _L33:
 102  0057  30E9        	set [105].1
 102  0058              _L32:
 102  0058  3069        	set [105].0
 102  0059              _L10:
 108  0059              #line 108 "E:\旧电脑资料\收集的资料\手册\合泰\SoftWare-BH66F5250_DEMOCODE\User\Main.c"
 108  0059  3800     E  	snz _gu8v_KeyUp[0].2
 108  005A  2800     R  	jmp _L4
 110  005B              #line 110 "E:\旧电脑资料\收集的资料\手册\合泰\SoftWare-BH66F5250_DEMOCODE\User\Main.c"
 110  005B  3400     E  	clr _gu8v_KeyUp[0].2
 111  005C              #line 111 "E:\旧电脑资料\收集的资料\手册\合泰\SoftWare-BH66F5250_DEMOCODE\User\Main.c"
 111  005C              ;# 111 "E:\旧电脑资料\收集的资料\手册\合泰\SoftWare-BH66F5250_DEMOCODE\User\Main.c" 1
 111  005C  0000        	nop
 112  005D              #line 112 "E:\旧电脑资料\收集的资料\手册\合泰\SoftWare-BH66F5250_DEMOCODE\User\Main.c"
 112  005D  0F03        	mov a,3
 112  005E  0200     R  	sub a,_gu8v_SPEED[0]
 112  005F  3C0A        	sz c
 112  0060  2800     R  	jmp _L4
 114  0061              #line 114 "E:\旧电脑资料\收集的资料\手册\合泰\SoftWare-BH66F5250_DEMOCODE\User\Main.c"
 114  0061  1F00     R  	clr _gu8v_SPEED[0]
 114  0062  2800     R  	jmp _L4
 114  0063  2800     R  	jmp $
 114  0064              _main endp
 114  0064              
 114  0064              @dummy endp
 114  0064              
 114  0064              #line 114 "E:\旧电脑资料\收集的资料\手册\合泰\SoftWare-BH66F5250_DEMOCODE\User\Main.c"
 114  0064              #pragma debug scope 1 1
  18  0064              #line 18 "E:\旧电脑资料\收集的资料\手册\合泰\SoftWare-BH66F5250_DEMOCODE\User\Main.c"
  18  0064              public _gu8v_SPEED
  18  0000              @HCCINIT0_gu8v_SPEED .section 'data'
  18  0000              _gu8v_SPEED	db 0
  18  0001              #pragma debug variable 8 1 _gu8v_SPEED "gu8v_SPEED"
  18  0001              
  18  0000              @HCCINIT .section 'data'
  17  0000              #line 17 "E:\旧电脑资料\收集的资料\手册\合泰\SoftWare-BH66F5250_DEMOCODE\User\Main.c"
  17  0000              public _gu8v_PGA
  17  0000              @HCCINIT0_gu8v_PGA .section 'data'
  17  0000              _gu8v_PGA	db 0
  17  0001              #pragma debug variable 8 1 _gu8v_PGA "gu8v_PGA"
  17  0001              
  17  0000              @HCCINIT .section 'data'
  15  0000              #line 15 "E:\旧电脑资料\收集的资料\手册\合泰\SoftWare-BH66F5250_DEMOCODE\User\Main.c"
  15  0000              public _gu8v_halt_time
  15  0000              @HCCINIT0_gu8v_halt_time .section 'data'
  15  0000              _gu8v_halt_time	db 0
  15  0001              #pragma debug variable 8 1 _gu8v_halt_time "gu8v_halt_time"
  15  0001              
  15  0000              @HCCINIT .section 'data'
  15  0000              #pragma debug struct_end
  15  0000              #pragma debug struct_end
  15  0000              #pragma debug union_end
  15  0000              #pragma debug union_end
文件：Main.c       编译器版本 HGASM 0202 页次6

  15  0000              #pragma debug variable 43 1 ___status "__status" 1
  15  0000              #pragma debug struct_end
  15  0000              #pragma debug struct_end
  15  0000              #pragma debug union_end
  15  0000              #pragma debug union_end
  15  0000              #pragma debug variable 45 1 ___mfi1 "__mfi1" 1
  15  0000              #pragma debug struct_end
  15  0000              #pragma debug struct_end
  15  0000              #pragma debug union_end
  15  0000              #pragma debug union_end
  15  0000              #pragma debug variable 47 1 ___pgac0 "__pgac0" 1
  15  0000              #pragma debug struct_end
  15  0000              #pragma debug struct_end
  15  0000              #pragma debug union_end
  15  0000              #pragma debug union_end
  15  0000              #pragma debug variable 49 1 ___dsdacc "__dsdacc" 1
  15  0000              #pragma debug struct_end
  15  0000              #pragma debug struct_end
  15  0000              #pragma debug union_end
  15  0000              #pragma debug union_end
  15  0000              #pragma debug variable 51 1 ___dsopc "__dsopc" 1
  15  0000              
  15  0000              ; output external variables
  15  0000              extern _gu8v_KeyUp:byte
  21  0000              #line 21 "E:\旧电脑资料\收集的资料\手册\合泰\SoftWare-BH66F5250_DEMOCODE\User\Main.c"
  21  0000              @code .section at 0 'code'
  21  0000  2800     R  	jmp _main_startup1
  21  0001              
  21  0001              extern _fun_PowerOnInit:near
  21  0001              extern _fun_ADC_INIT:near
  21  0001              extern _fun_ADC_Enable:near
  21  0001              extern _Uart_Init:near
  21  0001              extern _fun_ResetInit:near
  21  0001              extern _fun_ADC_Polling:near
  21  0001              extern _fun_Key_Scan:near
  21  0001              
  21  0001              ; 
  21  0001              ; Generated by holtek-gcc v3.19, Mon Mar 25 15:45:16 2019
  21  0001              ; Rebuild 115
  21  0001              ; end of file


        0 Errors, 0