文件：Uart.c       编译器版本 HGASM 0202 页次1


   1  0000              ; Generated by holtek-gcc v3.19, Mon Mar 25 15:45:18 2019
   2  0000              ; 
   3  0000              ; Configuration:
   4  0000              ;       with long instruction
   5  0000              ;       Single ROM, Multi-RAM
   6  0000              ;       bits_per_rom_unit:16
   7  0000              ;       with mp1
   8  0000              ;       with tbhp, address(0x9)
   9  0000              ;          Use tabrd-const
  10  0000              ;       
  11  0000              ; SFR address of long-instruction arch:
  12  0000              ;    mp0 = -1,1,0
  13  0000              ;    mp1 = 4,3,2
  14  0000              ;    mp2 = 14,13,12
  15  0000              ;    tbp = 9,7,8
  16  0000              ;    acc = 5
  17  0000              ;    pcl = 6
  18  0000              ;    status = 10
  19  0000              ;    bp = 11
  20  0000              ;    intc = 32
  21  0000              ;       
  22  0000              ;       
  23  0000              ; use 'tabrdc' instead of 'tabrd'
  24  0000              ;       
  25  0000              
  26  0000              #pragma translator "holtek-gcc 4.6.4" "3.19" "build 20130711"
  27  0000              ; Rebuild 115
  28  0000              
  29  0000              ir equ [2]
  30  0000              mp equ [3]
  31  0000              sbp equ [4]
  32  0000              acc equ [5]
  33  0000              bp equ [11]
  34  0000              tblp equ [7]
  35  0000              tbhp equ [9]
  36  0000              status equ [10]
  37  0000              c equ [10].0
  38  0000              ac equ [10].1
  39  0000              z equ [10].2
  40  0000              ov equ [10].3
  41  0000              cz equ [10].6
  42  0000              sc equ [10].7
  43  0000              intc equ [32]
  44  0000              mduwr0 equ [59h]
  45  0000              mduwr1 equ [5ah]
  46  0000              mduwr2 equ [5bh]
  47  0000              mduwr3 equ [5ch]
  48  0000              mduwr4 equ [5dh]
  49  0000              mduwr5 equ [5eh]
  50  0000              mduwrctrl equ [5fh]
  51  0000              
  52  0000              extern ra:byte
  53  0000              extern rb:byte
  54  0000              extern rc:byte
  55  0000              extern rd:byte
  56  0000              extern re:byte
  57  0000              extern rf:byte
  58  0000              extern rg:byte
  59  0000              extern rh:byte
文件：Uart.ASM     编译器版本 HGASM 0202 页次2

  60  0000              extern _Crom2Prom:near
  61  0000              extern _Crom2PromNext:near
  62  0000              
  63  0000              RAMBANK 0 @BITDATASEC, @BITDATASEC1
  64  0000              @HCCINIT	.section 'data'
  65  0000              @HCCINIT0	.section 'data'
  66  0000              @BITDATASEC	 .section 'data'
  67  0000              @BITDATASEC1	 .section 'data'
  68  0000              
  69  0000              #pragma debug scope 1 1
  70  0000              	extern __DELAY3:near
  71  0000              	extern __DELAYX3:near
  72  0000              	extern __DELAYX6:near
  73  0000              	extern __DELAYY5:near
  74  0000              	extern __DELAYY3:near
  75  0000              	extern _builtin_holtek_delay_2:byte
  76  0000              public _delay_uart
  77  0000              #pragma debug scope 2 1

  61  0000              #line 61 "E:\旧电脑资料\收集的资料\手册\合泰\SoftWare-BH66F5250_DEMOCODE\User\Uart.c"
  61  0000              _delay_uart .section 'code'
  61  0000              _delay_uart proc
  61  0000              public _delay_uart_2
  61  0000  0002[           local _delay_uart_2 db 2 dup(?)	; 2,0
            00
            ]
  61  0002              #pragma debug variable 12 2 _delay_uart_2+0 "lu8v_Uart_time"
  61  0000              _L3:
  62  0000              #line 62 "E:\旧电脑资料\收集的资料\手册\合泰\SoftWare-BH66F5250_DEMOCODE\User\Uart.c"
  62  0000  0700     R  	mov a,_delay_uart_2[0]
  62  0001  0080     E  	mov rb,a
  62  0002  0700     R  	mov a,_delay_uart_2[1]
  62  0003  0080     E  	mov rc,a
  62  0004  0FFF        	mov a,255
  62  0005  0300     E  	add a,rb
  62  0006  0080     R  	mov _delay_uart_2[0],a
  62  0007  0FFF        	mov a,255
  62  0008  1300     E  	adc a,rc
  62  0009  0080     R  	mov _delay_uart_2[1],a
  62  000A  0700     E  	mov a,rb
  62  000B  0500     E  	or a,rc
  62  000C  390A        	snz z
  62  000D  2800     R  	jmp _L3
  62  000E  0003        	ret
  62  000F              _delay_uart endp
  62  000F              #line 62 "E:\旧电脑资料\收集的资料\手册\合泰\SoftWare-BH66F5250_DEMOCODE\User\Uart.c"
  62  000F              #pragma debug scope 1 1
  62  000F              public _Uart_IO_SendOneByte
  62  000F              #pragma debug scope 3 1
  71  000F              #line 71 "E:\旧电脑资料\收集的资料\手册\合泰\SoftWare-BH66F5250_DEMOCODE\User\Uart.c"
  71  0000              _Uart_IO_SendOneByte .section 'code'
  71  0000              _Uart_IO_SendOneByte proc
  71  0000  00              local _Uart_IO_SendOneByte_2 db 1 dup(?)	; 0,1
  71  0001              #pragma debug variable 8 3 _Uart_IO_SendOneByte_2+0 "lu8v_Uart_byte"
  71  0000  0003        	ret
  71  0001              _Uart_IO_SendOneByte endp
  71  0001              #line 71 "E:\旧电脑资料\收集的资料\手册\合泰\SoftWare-BH66F5250_DEMOCODE\User\Uart.c"
  71  0001              #pragma debug scope 1 1
  71  0001              ___simc0 equ [47]
  71  0001              ___pbs0 equ [341]
文件：Uart.c       编译器版本 HGASM 0202 页次3

  71  0001              ___pas1 equ [340]
  71  0001              ___ifs1 equ [337]
  71  0001              ___uucr1 equ [48]
  71  0001              ___uucr2 equ [49]
  71  0001              ___ubrg equ [51]
  71  0001              ___intc2 equ [34]
  71  0001              ___intc0 equ [32]
  71  0001              public _Uart_Init
  71  0001              #pragma debug scope 4 1
 114  0001              #line 114 "E:\旧电脑资料\收集的资料\手册\合泰\SoftWare-BH66F5250_DEMOCODE\User\Uart.c"
 114  0000              _Uart_Init .section 'code'
 114  0000              _Uart_Init proc
 115  0000              #line 115 "E:\旧电脑资料\收集的资料\手册\合泰\SoftWare-BH66F5250_DEMOCODE\User\Uart.c"
 115  0000  322F        	set [47].4
 118  0001              #line 118 "E:\旧电脑资料\收集的资料\手册\合泰\SoftWare-BH66F5250_DEMOCODE\User\Uart.c"
 118  0001  B3D5 0001   	lset [341].7
 119  0003              #line 119 "E:\旧电脑资料\收集的资料\手册\合泰\SoftWare-BH66F5250_DEMOCODE\User\Uart.c"
 119  0003  B355 0001   	lset [341].6
 120  0005              #line 120 "E:\旧电脑资料\收集的资料\手册\合泰\SoftWare-BH66F5250_DEMOCODE\User\Uart.c"
 120  0005  B3D4 0001   	lset [340].7
 121  0007              #line 121 "E:\旧电脑资料\收集的资料\手册\合泰\SoftWare-BH66F5250_DEMOCODE\User\Uart.c"
 121  0007  B354 0001   	lset [340].6
 123  0009              #line 123 "E:\旧电脑资料\收集的资料\手册\合泰\SoftWare-BH66F5250_DEMOCODE\User\Uart.c"
 123  0009  B451 0001   	lclr [337].0
 125  000B              #line 125 "E:\旧电脑资料\收集的资料\手册\合泰\SoftWare-BH66F5250_DEMOCODE\User\Uart.c"
 125  000B  0F80        	mov a,128
 125  000C  00B0        	mov [48],a
 126  000D              #line 126 "E:\旧电脑资料\收集的资料\手册\合泰\SoftWare-BH66F5250_DEMOCODE\User\Uart.c"
 126  000D  0FEF        	mov a,239
 126  000E  00B1        	mov [49],a
 127  000F              #line 127 "E:\旧电脑资料\收集的资料\手册\合泰\SoftWare-BH66F5250_DEMOCODE\User\Uart.c"
 127  000F  3131        	set [49].2
 129  0010              #line 129 "E:\旧电脑资料\收集的资料\手册\合泰\SoftWare-BH66F5250_DEMOCODE\User\Uart.c"
 129  0010  0F0C        	mov a,12
 129  0011  00B3        	mov [51],a
 132  0012              #line 132 "E:\旧电脑资料\收集的资料\手册\合泰\SoftWare-BH66F5250_DEMOCODE\User\Uart.c"
 132  0012  30A2        	set [34].1
 133  0013              #line 133 "E:\旧电脑资料\收集的资料\手册\合泰\SoftWare-BH66F5250_DEMOCODE\User\Uart.c"
 133  0013  3020        	set [32].0
 133  0014  0003        	ret
 133  0015              _Uart_Init endp
 133  0015              #line 133 "E:\旧电脑资料\收集的资料\手册\合泰\SoftWare-BH66F5250_DEMOCODE\User\Uart.c"
 133  0015              #pragma debug scope 1 1
 133  0015              public _Uart_off
 133  0015              #pragma debug scope 5 1
 143  0015              #line 143 "E:\旧电脑资料\收集的资料\手册\合泰\SoftWare-BH66F5250_DEMOCODE\User\Uart.c"
 143  0000              _Uart_off .section 'code'
 143  0000              _Uart_off proc
 144  0000              #line 144 "E:\旧电脑资料\收集的资料\手册\合泰\SoftWare-BH66F5250_DEMOCODE\User\Uart.c"
 144  0000  37B0        	clr [48].7
 145  0001              #line 145 "E:\旧电脑资料\收集的资料\手册\合泰\SoftWare-BH66F5250_DEMOCODE\User\Uart.c"
 145  0001  1F30        	clr [48]
 146  0002              #line 146 "E:\旧电脑资料\收集的资料\手册\合泰\SoftWare-BH66F5250_DEMOCODE\User\Uart.c"
 146  0002  1F31        	clr [49]
 147  0003              #line 147 "E:\旧电脑资料\收集的资料\手册\合泰\SoftWare-BH66F5250_DEMOCODE\User\Uart.c"
 147  0003  34A2        	clr [34].1
 147  0004  0003        	ret
 147  0005              _Uart_off endp
 147  0005              #line 147 "E:\旧电脑资料\收集的资料\手册\合泰\SoftWare-BH66F5250_DEMOCODE\User\Uart.c"
 147  0005              #pragma debug scope 1 1
文件：Uart.c       编译器版本 HGASM 0202 页次4

 147  0005              ___uusr equ [52]
 147  0005              ___utxr_rxr equ [50]
 147  0005              ___pgac0 equ [105]
 147  0005              ___adcs equ [101]
 147  0005              ___adcr1 equ [103]
 147  0005              ___adcr0 equ [102]
 147  0005              public _UART_ISR
 147  0005              #pragma debug scope 6 1
 160  0005              #line 160 "E:\旧电脑资料\收集的资料\手册\合泰\SoftWare-BH66F5250_DEMOCODE\User\Uart.c"
 160  0000              @UART_ISR_code .section at 36 'code'
 160  0000              ifdef INTERRUPT_DELAY
 160  0000              	nop
 160  0000              endif
 160  0000  0080     E  	mov r1,a
 160  0001  070A        	mov a,status
 160  0002              ifndef INTERRUPT_DELAY
 160  0002  0080     E  	mov r2,a
 160  0003              endif
 160  0003  2800     R  	jmp _UART_ISR
 160  0004              #pragma debug scope 1 1
 160  0004              @dummy36 endp
 160  0004              #pragma debug scope 7 1
 160  0000              _UART_ISR .section 'code'
 160  0000              _UART_ISR proc
 160  0000              ifdef INTERRUPT_DELAY
 160  0000              	mov r2,a
 160  0000              endif
 160  0000  0703        	mov a,mp
 160  0001  0080     E  	mov r3,a
 160  0002  0704        	mov a,sbp
 160  0003  0080     E  	mov r4,a
 160  0004  0707        	mov a,tblp
 160  0005  0080     E  	mov r5,a
 160  0006  0709        	mov a,tbhp
 160  0007  0080     E  	mov r6,a
 163  0008              #line 163 "E:\旧电脑资料\收集的资料\手册\合泰\SoftWare-BH66F5250_DEMOCODE\User\Uart.c"
 163  0008  3FB4        	sz [52].7
 163  0009  2800     R  	jmp _L8
 163  000A              #line 163 "E:\旧电脑资料\收集的资料\手册\合泰\SoftWare-BH66F5250_DEMOCODE\User\Uart.c"
 163  000A  3F34        	sz [52].6
 163  000B  2800     R  	jmp _L8
 163  000C  3EB4        	sz [52].5
 163  000D  2800     R  	jmp _L8
 163  000E  3A34        	snz [52].4
 163  000F  2800     R  	jmp _L9
 163  0010              _L8:
 165  0010              #line 165 "E:\旧电脑资料\收集的资料\手册\合泰\SoftWare-BH66F5250_DEMOCODE\User\Uart.c"
 165  0010  0734        	mov a,[52]
 165  0011  0080     E  	mov ra,a
 166  0012              #line 166 "E:\旧电脑资料\收集的资料\手册\合泰\SoftWare-BH66F5250_DEMOCODE\User\Uart.c"
 166  0012  0732        	mov a,[50]
 166  0013  0080     E  	mov ra,a
 166  0014  2800     R  	jmp _L7
 166  0015              _L9:
 170  0015              #line 170 "E:\旧电脑资料\收集的资料\手册\合泰\SoftWare-BH66F5250_DEMOCODE\User\Uart.c"
 170  0015  3934        	snz [52].2
 170  0016  2800     R  	jmp _L11
 174  0017              #line 174 "E:\旧电脑资料\收集的资料\手册\合泰\SoftWare-BH66F5250_DEMOCODE\User\Uart.c"
 174  0017  0700     R  	mov a,_array_uart_rxbuff[1]
 174  0018  0080     R  	mov _array_uart_rxbuff[0],a
文件：Uart.c       编译器版本 HGASM 0202 页次5

 174  0019  0700     R  	mov a,_array_uart_rxbuff[2]
 174  001A  0080     R  	mov _array_uart_rxbuff[1],a
 174  001B  0700     R  	mov a,_array_uart_rxbuff[3]
 174  001C  0080     R  	mov _array_uart_rxbuff[2],a
 174  001D  0700     R  	mov a,_array_uart_rxbuff[4]
 174  001E  0080     R  	mov _array_uart_rxbuff[3],a
 176  001F              #line 176 "E:\旧电脑资料\收集的资料\手册\合泰\SoftWare-BH66F5250_DEMOCODE\User\Uart.c"
 176  001F  0732        	mov a,[50]
 176  0020  0080     R  	mov _array_uart_rxbuff[4],a
 177  0021              #line 177 "E:\旧电脑资料\收集的资料\手册\合泰\SoftWare-BH66F5250_DEMOCODE\User\Uart.c"
 177  0021  0700     R  	mov a,_array_uart_rxbuff[0]
 177  0022  0A55        	sub a,85
 177  0023  390A        	snz z
 177  0024  2800     R  	jmp _L13
 177  0025  0700     R  	mov a,_array_uart_rxbuff[3]
 177  0026  0300     R  	add a,_array_uart_rxbuff[2]
 177  0027  0080     E  	mov rb,a
 177  0028  0700     R  	mov a,_array_uart_rxbuff[1]
 177  0029  0300     R  	add a,_array_uart_rxbuff[0]
 177  002A  0080     E  	mov ra,a
 177  002B  0700     E  	mov a,rb
 177  002C  0380     E  	addm a,ra
 177  002D  0700     R  	mov a,_array_uart_rxbuff[4]
 177  002E  0200     E  	sub a,ra
 177  002F  390A        	snz z
 177  0030  2800     R  	jmp _L13
 179  0031              #line 179 "E:\旧电脑资料\收集的资料\手册\合泰\SoftWare-BH66F5250_DEMOCODE\User\Uart.c"
 179  0031  3000     R  	set _gu8v_uart_flag[0].1
 182  0032              #line 182 "E:\旧电脑资料\收集的资料\手册\合泰\SoftWare-BH66F5250_DEMOCODE\User\Uart.c"
 182  0032  1080     R  	sz _array_uart_rxbuff[2]
 182  0033  2800     R  	jmp _L15
 184  0034              #line 184 "E:\旧电脑资料\收集的资料\手册\合泰\SoftWare-BH66F5250_DEMOCODE\User\Uart.c"
 184  0034  3569        	clr [105].2
 184  0035  2800     R  	jmp _L39
 184  0036              _L15:
 187  0036              #line 187 "E:\旧电脑资料\收集的资料\手册\合泰\SoftWare-BH66F5250_DEMOCODE\User\Uart.c"
 187  0036  1700     R  	sdza _array_uart_rxbuff[2]
 187  0037  2800     R  	jmp _L17
 189  0038              #line 189 "E:\旧电脑资料\收集的资料\手册\合泰\SoftWare-BH66F5250_DEMOCODE\User\Uart.c"
 189  0038  3569        	clr [105].2
 189  0039  2800     R  	jmp _L40
 189  003A              _L17:
 191  003A              #line 191 "E:\旧电脑资料\收集的资料\手册\合泰\SoftWare-BH66F5250_DEMOCODE\User\Uart.c"
 191  003A  0700     R  	mov a,_array_uart_rxbuff[2]
 191  003B  0A02        	sub a,2
 191  003C  390A        	snz z
 191  003D  2800     R  	jmp _L18
 193  003E              #line 193 "E:\旧电脑资料\收集的资料\手册\合泰\SoftWare-BH66F5250_DEMOCODE\User\Uart.c"
 193  003E  3569        	clr [105].2
 193  003F              _L33:
 193  003F  30E9        	set [105].1
 193  0040              _L32:
 193  0040  3469        	clr [105].0
 193  0041  2800     R  	jmp _L16
 193  0042              _L18:
 195  0042              #line 195 "E:\旧电脑资料\收集的资料\手册\合泰\SoftWare-BH66F5250_DEMOCODE\User\Uart.c"
 195  0042  0700     R  	mov a,_array_uart_rxbuff[2]
 195  0043  0A03        	sub a,3
 195  0044  390A        	snz z
 195  0045  2800     R  	jmp _L19
文件：Uart.c       编译器版本 HGASM 0202 页次6

 197  0046              #line 197 "E:\旧电脑资料\收集的资料\手册\合泰\SoftWare-BH66F5250_DEMOCODE\User\Uart.c"
 197  0046  3569        	clr [105].2
 197  0047  2800     R  	jmp _L35
 197  0048              _L19:
 199  0048              #line 199 "E:\旧电脑资料\收集的资料\手册\合泰\SoftWare-BH66F5250_DEMOCODE\User\Uart.c"
 199  0048  0700     R  	mov a,_array_uart_rxbuff[2]
 199  0049  0A04        	sub a,4
 199  004A  390A        	snz z
 199  004B  2800     R  	jmp _L20
 201  004C              #line 201 "E:\旧电脑资料\收集的资料\手册\合泰\SoftWare-BH66F5250_DEMOCODE\User\Uart.c"
 201  004C  3169        	set [105].2
 201  004D              _L39:
 201  004D  34E9        	clr [105].1
 201  004E  2800     R  	jmp _L32
 201  004F              _L20:
 203  004F              #line 203 "E:\旧电脑资料\收集的资料\手册\合泰\SoftWare-BH66F5250_DEMOCODE\User\Uart.c"
 203  004F  0700     R  	mov a,_array_uart_rxbuff[2]
 203  0050  0A05        	sub a,5
 203  0051  390A        	snz z
 203  0052  2800     R  	jmp _L21
 205  0053              #line 205 "E:\旧电脑资料\收集的资料\手册\合泰\SoftWare-BH66F5250_DEMOCODE\User\Uart.c"
 205  0053  3169        	set [105].2
 205  0054              _L40:
 205  0054  34E9        	clr [105].1
 205  0055  2800     R  	jmp _L34
 205  0056              _L21:
 207  0056              #line 207 "E:\旧电脑资料\收集的资料\手册\合泰\SoftWare-BH66F5250_DEMOCODE\User\Uart.c"
 207  0056  0700     R  	mov a,_array_uart_rxbuff[2]
 207  0057  0A06        	sub a,6
 207  0058  390A        	snz z
 207  0059  2800     R  	jmp _L22
 209  005A              #line 209 "E:\旧电脑资料\收集的资料\手册\合泰\SoftWare-BH66F5250_DEMOCODE\User\Uart.c"
 209  005A  3169        	set [105].2
 209  005B  2800     R  	jmp _L33
 209  005C              _L22:
 211  005C              #line 211 "E:\旧电脑资料\收集的资料\手册\合泰\SoftWare-BH66F5250_DEMOCODE\User\Uart.c"
 211  005C  0700     R  	mov a,_array_uart_rxbuff[2]
 211  005D  0A07        	sub a,7
 211  005E  390A        	snz z
 211  005F  2800     R  	jmp _L16
 213  0060              #line 213 "E:\旧电脑资料\收集的资料\手册\合泰\SoftWare-BH66F5250_DEMOCODE\User\Uart.c"
 213  0060  3169        	set [105].2
 213  0061              _L35:
 213  0061  30E9        	set [105].1
 213  0062              _L34:
 213  0062  3069        	set [105].0
 213  0063              _L16:
 217  0063              #line 217 "E:\旧电脑资料\收集的资料\手册\合泰\SoftWare-BH66F5250_DEMOCODE\User\Uart.c"
 217  0063  1080     R  	sz _array_uart_rxbuff[3]
 217  0064  2800     R  	jmp _L23
 219  0065              #line 219 "E:\旧电脑资料\收集的资料\手册\合泰\SoftWare-BH66F5250_DEMOCODE\User\Uart.c"
 219  0065  0F02        	mov a,2
 219  0066  00E5        	mov [101],a
 219  0067  37E7        	clr [103].7
 219  0068  3367        	set [103].6
 219  0069  36E7        	clr [103].5
 219  006A  3666        	clr [102].4
 219  006B  2800     R  	jmp _L36
 219  006C              _L23:
 222  006C              #line 222 "E:\旧电脑资料\收集的资料\手册\合泰\SoftWare-BH66F5250_DEMOCODE\User\Uart.c"
文件：Uart.c       编译器版本 HGASM 0202 页次7

 222  006C  1700     R  	sdza _array_uart_rxbuff[3]
 222  006D  2800     R  	jmp _L24
 224  006E              #line 224 "E:\旧电脑资料\收集的资料\手册\合泰\SoftWare-BH66F5250_DEMOCODE\User\Uart.c"
 224  006E  0F02        	mov a,2
 224  006F  00E5        	mov [101],a
 224  0070  37E7        	clr [103].7
 224  0071  3367        	set [103].6
 224  0072  36E7        	clr [103].5
 224  0073  3666        	clr [102].4
 224  0074  31E6        	set [102].3
 224  0075  2800     R  	jmp _L37
 224  0076              _L24:
 226  0076              #line 226 "E:\旧电脑资料\收集的资料\手册\合泰\SoftWare-BH66F5250_DEMOCODE\User\Uart.c"
 226  0076  0700     R  	mov a,_array_uart_rxbuff[3]
 226  0077  0A02        	sub a,2
 226  0078  390A        	snz z
 226  0079  2800     R  	jmp _L25
 228  007A              #line 228 "E:\旧电脑资料\收集的资料\手册\合泰\SoftWare-BH66F5250_DEMOCODE\User\Uart.c"
 228  007A  0F02        	mov a,2
 228  007B  00E5        	mov [101],a
 228  007C  37E7        	clr [103].7
 228  007D  3367        	set [103].6
 228  007E  36E7        	clr [103].5
 228  007F  3666        	clr [102].4
 228  0080  31E6        	set [102].3
 228  0081  2800     R  	jmp _L38
 228  0082              _L25:
 230  0082              #line 230 "E:\旧电脑资料\收集的资料\手册\合泰\SoftWare-BH66F5250_DEMOCODE\User\Uart.c"
 230  0082  0700     R  	mov a,_array_uart_rxbuff[3]
 230  0083  0A03        	sub a,3
 230  0084  390A        	snz z
 230  0085  2800     R  	jmp _L26
 232  0086              #line 232 "E:\旧电脑资料\收集的资料\手册\合泰\SoftWare-BH66F5250_DEMOCODE\User\Uart.c"
 232  0086  0F02        	mov a,2
 232  0087  00E5        	mov [101],a
 232  0088  37E7        	clr [103].7
 232  0089  3367        	set [103].6
 232  008A  36E7        	clr [103].5
 232  008B  3266        	set [102].4
 232  008C  35E6        	clr [102].3
 232  008D              _L37:
 232  008D  3566        	clr [102].2
 232  008E  2800     R  	jmp _L13
 232  008F              _L26:
 234  008F              #line 234 "E:\旧电脑资料\收集的资料\手册\合泰\SoftWare-BH66F5250_DEMOCODE\User\Uart.c"
 234  008F  0700     R  	mov a,_array_uart_rxbuff[3]
 234  0090  0A04        	sub a,4
 234  0091  390A        	snz z
 234  0092  2800     R  	jmp _L13
 236  0093              #line 236 "E:\旧电脑资料\收集的资料\手册\合泰\SoftWare-BH66F5250_DEMOCODE\User\Uart.c"
 236  0093  0F02        	mov a,2
 236  0094  00E5        	mov [101],a
 236  0095  37E7        	clr [103].7
 236  0096  3367        	set [103].6
 236  0097  36E7        	clr [103].5
 236  0098  3266        	set [102].4
 236  0099              _L36:
 236  0099  35E6        	clr [102].3
 236  009A              _L38:
 236  009A  3166        	set [102].2
文件：Uart.c       编译器版本 HGASM 0202 页次8

 236  009B              _L13:
 242  009B              #line 242 "E:\旧电脑资料\收集的资料\手册\合泰\SoftWare-BH66F5250_DEMOCODE\User\Uart.c"
 242  009B              ;# 242 "E:\旧电脑资料\收集的资料\手册\合泰\SoftWare-BH66F5250_DEMOCODE\User\Uart.c" 1
 242  009B  0000        	nop
 242  009C              _L11:
 244  009C              #line 244 "E:\旧电脑资料\收集的资料\手册\合泰\SoftWare-BH66F5250_DEMOCODE\User\Uart.c"
 244  009C  3834        	snz [52].0
 244  009D  2800     R  	jmp _L7
 246  009E              #line 246 "E:\旧电脑资料\收集的资料\手册\合泰\SoftWare-BH66F5250_DEMOCODE\User\Uart.c"
 246  009E  1480     R  	inc _gu8v_tx_guide[0]
 247  009F              #line 247 "E:\旧电脑资料\收集的资料\手册\合泰\SoftWare-BH66F5250_DEMOCODE\User\Uart.c"
 247  009F  0F05        	mov a,5
 247  00A0  0200     R  	sub a,_gu8v_tx_guide[0]
 247  00A1  380A        	snz c
 247  00A2  2800     R  	jmp _L7
 249  00A3              #line 249 "E:\旧电脑资料\收集的资料\手册\合泰\SoftWare-BH66F5250_DEMOCODE\User\Uart.c"
 249  00A3  0F00     R  	mov a,low offset _array_uart_txbuff
 249  00A4  0300     R  	add a,_gu8v_tx_guide[0]
 249  00A5  0083        	mov mp,a
 249  00A6  0F00     R  	mov a,high offset _array_uart_txbuff
 249  00A7  1F04        	clr sbp
 249  00A8  1384        	adcm a,sbp
 249  00A9  2000     E  	call _Crom2Prom
 249  00AA  00B2        	mov [50],a
 249  00AB              _L7:
 249  00AB  0700     E  	mov a,r2
 249  00AC  008A        	mov status,a
 249  00AD  0700     E  	mov a,r3
 249  00AE  0083        	mov mp,a
 249  00AF  0700     E  	mov a,r4
 249  00B0  0084        	mov sbp,a
 249  00B1  0700     E  	mov a,r5
 249  00B2  0087        	mov tblp,a
 249  00B3  0700     E  	mov a,r6
 249  00B4  0089        	mov tbhp,a
 249  00B5  1D05        	tabrdc acc
 249  00B6  0700     E  	mov a,r1
 249  00B7  0004        	reti
 249  00B8              _UART_ISR endp
 249  00B8              
 249  00B8              #line 249 "E:\旧电脑资料\收集的资料\手册\合泰\SoftWare-BH66F5250_DEMOCODE\User\Uart.c"
 249  00B8              #pragma debug scope 1 1
  49  00B8              #line 49 "E:\旧电脑资料\收集的资料\手册\合泰\SoftWare-BH66F5250_DEMOCODE\User\Uart.c"
  49  00B8              public _array_uart_rxbuff
  49  0000              @HCCINIT0_array_uart_rxbuff .section 'data'
  49  0000  0006[       _array_uart_rxbuff	db 6 dup(0)
            00
            ]
  49  0006              #pragma debug array 42 8 6 1
  49  0006              #pragma debug array 42 8 6 1
  49  0006              #pragma debug variable 42 1 _array_uart_rxbuff "array_uart_rxbuff"
  49  0006              
  49  0000              @HCCINIT .section 'data'
  48  0000              #line 48 "E:\旧电脑资料\收集的资料\手册\合泰\SoftWare-BH66F5250_DEMOCODE\User\Uart.c"
  48  0000              public _array_uart_txbuff
  48  0000              @HCCINIT0_array_uart_txbuff .section 'data'
  48  0000  0006[       _array_uart_txbuff	db 6 dup(0)
            00
            ]
  48  0006              #pragma debug variable 42 1 _array_uart_txbuff "array_uart_txbuff"
文件：Uart.c       编译器版本 HGASM 0202 页次9

  48  0006              
  48  0000              @HCCINIT .section 'data'
  47  0000              #line 47 "E:\旧电脑资料\收集的资料\手册\合泰\SoftWare-BH66F5250_DEMOCODE\User\Uart.c"
  47  0000              public _gu8v_uart_flag
  47  0000              @HCCINIT0_gu8v_uart_flag .section 'data'
  47  0000              _gu8v_uart_flag	db 0
  47  0001              #pragma debug struct_end
  47  0001              #pragma debug struct_end
  47  0001              #pragma debug union_end
  47  0001              #pragma debug union_end
  47  0001              #pragma debug variable 44 1 _gu8v_uart_flag "gu8v_uart_flag"
  47  0001              
  47  0000              @HCCINIT .section 'data'
  46  0000              #line 46 "E:\旧电脑资料\收集的资料\手册\合泰\SoftWare-BH66F5250_DEMOCODE\User\Uart.c"
  46  0000              public _gu8v_tx_guide
  46  0000              @HCCINIT0_gu8v_tx_guide .section 'data'
  46  0000              _gu8v_tx_guide	db 0
  46  0001              #pragma debug variable 8 1 _gu8v_tx_guide "gu8v_tx_guide"
  46  0001              
  46  0000              @HCCINIT .section 'data'
  45  0000              #line 45 "E:\旧电脑资料\收集的资料\手册\合泰\SoftWare-BH66F5250_DEMOCODE\User\Uart.c"
  45  0000              public _gu8v_rx_guide
  45  0000              @HCCINIT0_gu8v_rx_guide .section 'data'
  45  0000              _gu8v_rx_guide	db 0
  45  0001              #pragma debug variable 8 1 _gu8v_rx_guide "gu8v_rx_guide"
  45  0001              
  45  0000              @HCCINIT .section 'data'
  45  0000              #pragma debug struct_end
  45  0000              #pragma debug struct_end
  45  0000              #pragma debug union_end
  45  0000              #pragma debug union_end
  45  0000              #pragma debug variable 46 1 ___intc0 "__intc0" 1
  45  0000              #pragma debug struct_end
  45  0000              #pragma debug struct_end
  45  0000              #pragma debug union_end
  45  0000              #pragma debug union_end
  45  0000              #pragma debug variable 48 1 ___intc2 "__intc2" 1
  45  0000              #pragma debug struct_end
  45  0000              #pragma debug struct_end
  45  0000              #pragma debug union_end
  45  0000              #pragma debug union_end
  45  0000              #pragma debug variable 50 1 ___simc0 "__simc0" 1
  45  0000              #pragma debug struct_end
  45  0000              #pragma debug struct_end
  45  0000              #pragma debug union_end
  45  0000              #pragma debug union_end
  45  0000              #pragma debug variable 52 1 ___uucr1 "__uucr1" 1
  45  0000              #pragma debug struct_end
  45  0000              #pragma debug struct_end
  45  0000              #pragma debug union_end
  45  0000              #pragma debug union_end
  45  0000              #pragma debug variable 54 1 ___uucr2 "__uucr2" 1
  45  0000              #pragma debug struct_end
  45  0000              #pragma debug struct_end
  45  0000              #pragma debug union_end
  45  0000              #pragma debug union_end
  45  0000              #pragma debug variable 56 1 ___utxr_rxr "__utxr_rxr" 1
  45  0000              #pragma debug struct_end
  45  0000              #pragma debug struct_end
  45  0000              #pragma debug union_end
文件：Uart.c       编译器版本 HGASM 0202 页次10

  45  0000              #pragma debug union_end
  45  0000              #pragma debug variable 58 1 ___ubrg "__ubrg" 1
  45  0000              #pragma debug struct_end
  45  0000              #pragma debug struct_end
  45  0000              #pragma debug union_end
  45  0000              #pragma debug union_end
  45  0000              #pragma debug variable 60 1 ___uusr "__uusr" 1
  45  0000              #pragma debug struct_end
  45  0000              #pragma debug struct_end
  45  0000              #pragma debug union_end
  45  0000              #pragma debug union_end
  45  0000              #pragma debug variable 62 1 ___adcs "__adcs" 1
  45  0000              #pragma debug struct_end
  45  0000              #pragma debug struct_end
  45  0000              #pragma debug union_end
  45  0000              #pragma debug union_end
  45  0000              #pragma debug variable 64 1 ___adcr0 "__adcr0" 1
  45  0000              #pragma debug struct_end
  45  0000              #pragma debug struct_end
  45  0000              #pragma debug union_end
  45  0000              #pragma debug union_end
  45  0000              #pragma debug variable 66 1 ___adcr1 "__adcr1" 1
  45  0000              #pragma debug struct_end
  45  0000              #pragma debug struct_end
  45  0000              #pragma debug union_end
  45  0000              #pragma debug union_end
  45  0000              #pragma debug variable 68 1 ___pgac0 "__pgac0" 1
  45  0000              #pragma debug struct_end
  45  0000              #pragma debug struct_end
  45  0000              #pragma debug union_end
  45  0000              #pragma debug union_end
  45  0000              #pragma debug variable 70 1 ___ifs1 "__ifs1" 1
  45  0000              #pragma debug struct_end
  45  0000              #pragma debug struct_end
  45  0000              #pragma debug union_end
  45  0000              #pragma debug union_end
  45  0000              #pragma debug variable 72 1 ___pas1 "__pas1" 1
  45  0000              #pragma debug struct_end
  45  0000              #pragma debug struct_end
  45  0000              #pragma debug union_end
  45  0000              #pragma debug union_end
  45  0000              #pragma debug variable 74 1 ___pbs0 "__pbs0" 1
  45  0000              extern r1:byte
  45  0000              extern r2:byte
  45  0000              extern r3:byte
  45  0000              extern r4:byte
  45  0000              extern r5:byte
  45  0000              extern r6:byte
  45  0000              
  45  0000              ; 
  45  0000              ; Generated by holtek-gcc v3.19, Mon Mar 25 15:45:18 2019
  45  0000              ; Rebuild 115
  45  0000              ; end of file


        0 Errors, 0